	.file	"main.cpp"
	.text
Ltext0:
	.section	.text$_ZSt3absf,"x"
	.linkonce discard
	.globl	__ZSt3absf
	.def	__ZSt3absf;	.scl	2;	.type	32;	.endef
__ZSt3absf:
LFB116:
	.file 1 "C:/Program Files (x86)/mingw-w64/i686-8.1.0-posix-dwarf-rt_v6-rev0/mingw32/lib/gcc/i686-w64-mingw32/8.1.0/include/c++/bits/std_abs.h"
	.loc 1 75 3
	.cfi_startproc
	pushl	%ebp
	.cfi_def_cfa_offset 8
	.cfi_offset 5, -8
	movl	%esp, %ebp
	.cfi_def_cfa_register 5
	.loc 1 75 31
	flds	8(%ebp)
	fabs
	.loc 1 75 34
	popl	%ebp
	.cfi_restore 5
	.cfi_def_cfa 4, 4
	ret
	.cfi_endproc
LFE116:
	.section .rdata,"dr"
__ZStL19piecewise_construct:
	.space 1
	.text
	.def	__ZL9vsnprintfPcjPKcS_;	.scl	3;	.type	32;	.endef
__ZL9vsnprintfPcjPKcS_:
LFB1008:
	.file 2 "C:/Program Files (x86)/mingw-w64/i686-8.1.0-posix-dwarf-rt_v6-rev0/mingw32/i686-w64-mingw32/include/stdio.h"
	.loc 2 400 1
	.cfi_startproc
	pushl	%ebp
	.cfi_def_cfa_offset 8
	.cfi_offset 5, -8
	movl	%esp, %ebp
	.cfi_def_cfa_register 5
	subl	$24, %esp
	.loc 2 401 27
	movl	20(%ebp), %eax
	movl	%eax, 12(%esp)
	movl	16(%ebp), %eax
	movl	%eax, 8(%esp)
	movl	12(%ebp), %eax
	movl	%eax, 4(%esp)
	movl	8(%ebp), %eax
	movl	%eax, (%esp)
	call	___mingw_vsnprintf
	.loc 2 402 1
	leave
	.cfi_restore 5
	.cfi_def_cfa 4, 4
	ret
	.cfi_endproc
LFE1008:
	.section .rdata,"dr"
LC1:
	.ascii "%d\0"
	.section	.text$_ZNSt7__cxx119to_stringEi,"x"
	.linkonce discard
	.globl	__ZNSt7__cxx119to_stringEi
	.def	__ZNSt7__cxx119to_stringEi;	.scl	2;	.type	32;	.endef
__ZNSt7__cxx119to_stringEi:
LFB1427:
	.file 3 "C:/Program Files (x86)/mingw-w64/i686-8.1.0-posix-dwarf-rt_v6-rev0/mingw32/lib/gcc/i686-w64-mingw32/8.1.0/include/c++/bits/basic_string.h"
	.loc 3 6415 3
	.cfi_startproc
	pushl	%ebp
	.cfi_def_cfa_offset 8
	.cfi_offset 5, -8
	movl	%esp, %ebp
	.cfi_def_cfa_register 5
	subl	$40, %esp
	.loc 3 6416 20
	movl	8(%ebp), %eax
	movl	12(%ebp), %edx
	movl	%edx, 16(%esp)
	movl	$LC1, 12(%esp)
	movl	$16, 8(%esp)
	movl	$__ZL9vsnprintfPcjPKcS_, 4(%esp)
	movl	%eax, (%esp)
	call	__ZN9__gnu_cxx12__to_xstringINSt7__cxx1112basic_stringIcSt11char_traitsIcESaIcEEEcEET_PFiPT0_jPKS8_PcEjSB_z
	.loc 3 6416 23
	movl	8(%ebp), %eax
	leave
	.cfi_restore 5
	.cfi_def_cfa 4, 4
	ret
	.cfi_endproc
LFE1427:
	.section .rdata,"dr"
LC2:
	.ascii "%f\0"
	.section	.text$_ZNSt7__cxx119to_stringEf,"x"
	.linkonce discard
	.globl	__ZNSt7__cxx119to_stringEf
	.def	__ZNSt7__cxx119to_stringEf;	.scl	2;	.type	32;	.endef
__ZNSt7__cxx119to_stringEf:
LFB1433:
	.loc 3 6449 3
	.cfi_startproc
	pushl	%ebp
	.cfi_def_cfa_offset 8
	.cfi_offset 5, -8
	movl	%esp, %ebp
	.cfi_def_cfa_register 5
	subl	$56, %esp
	.loc 3 6450 15
	movl	$58, -12(%ebp)
	.loc 3 6453 20
	flds	12(%ebp)
	movl	8(%ebp), %eax
	fstpl	16(%esp)
	movl	$LC2, 12(%esp)
	movl	$58, 8(%esp)
	movl	$__ZL9vsnprintfPcjPKcS_, 4(%esp)
	movl	%eax, (%esp)
	call	__ZN9__gnu_cxx12__to_xstringINSt7__cxx1112basic_stringIcSt11char_traitsIcESaIcEEEcEET_PFiPT0_jPKS8_PcEjSB_z
	.loc 3 6454 3
	movl	8(%ebp), %eax
	leave
	.cfi_restore 5
	.cfi_def_cfa 4, 4
	ret
	.cfi_endproc
LFE1433:
	.section	.text$_ZSt4acosf,"x"
	.linkonce discard
	.globl	__ZSt4acosf
	.def	__ZSt4acosf;	.scl	2;	.type	32;	.endef
__ZSt4acosf:
LFB1520:
	.file 4 "C:/Program Files (x86)/mingw-w64/i686-8.1.0-posix-dwarf-rt_v6-rev0/mingw32/lib/gcc/i686-w64-mingw32/8.1.0/include/c++/cmath"
	.loc 4 88 3
	.cfi_startproc
	pushl	%ebp
	.cfi_def_cfa_offset 8
	.cfi_offset 5, -8
	movl	%esp, %ebp
	.cfi_def_cfa_register 5
	subl	$24, %esp
	.loc 4 88 27
	flds	8(%ebp)
	fstps	(%esp)
	call	_acosf
	.loc 4 88 34
	leave
	.cfi_restore 5
	.cfi_def_cfa 4, 4
	ret
	.cfi_endproc
LFE1520:
	.section	.text$_ZSt4ceilf,"x"
	.linkonce discard
	.globl	__ZSt4ceilf
	.def	__ZSt4ceilf;	.scl	2;	.type	32;	.endef
__ZSt4ceilf:
LFB1532:
	.loc 4 166 3
	.cfi_startproc
	pushl	%ebp
	.cfi_def_cfa_offset 8
	.cfi_offset 5, -8
	movl	%esp, %ebp
	.cfi_def_cfa_register 5
	subl	$4, %esp
	.loc 4 166 27
	flds	8(%ebp)
	fnstcw	-2(%ebp)
	movzwl	-2(%ebp), %eax
	andb	$-13, %ah
	orb	$8, %ah
	movw	%ax, -4(%ebp)
	fldcw	-4(%ebp)
	frndint
	fldcw	-2(%ebp)
	.loc 4 166 34
	leave
	.cfi_restore 5
	.cfi_def_cfa 4, 4
	ret
	.cfi_endproc
LFE1532:
	.section	.text$_ZSt3cosf,"x"
	.linkonce discard
	.globl	__ZSt3cosf
	.def	__ZSt3cosf;	.scl	2;	.type	32;	.endef
__ZSt3cosf:
LFB1535:
	.loc 4 185 3
	.cfi_startproc
	pushl	%ebp
	.cfi_def_cfa_offset 8
	.cfi_offset 5, -8
	movl	%esp, %ebp
	.cfi_def_cfa_register 5
	subl	$24, %esp
	.loc 4 185 26
	flds	8(%ebp)
	fstps	(%esp)
	call	_cosf
	.loc 4 185 33
	leave
	.cfi_restore 5
	.cfi_def_cfa 4, 4
	ret
	.cfi_endproc
LFE1535:
	.section	.text$_ZSt4fabsf,"x"
	.linkonce discard
	.globl	__ZSt4fabsf
	.def	__ZSt4fabsf;	.scl	2;	.type	32;	.endef
__ZSt4fabsf:
LFB1544:
	.loc 4 242 3
	.cfi_startproc
	pushl	%ebp
	.cfi_def_cfa_offset 8
	.cfi_offset 5, -8
	movl	%esp, %ebp
	.cfi_def_cfa_register 5
	.loc 4 242 31
	flds	8(%ebp)
	fabs
	.loc 4 242 34
	popl	%ebp
	.cfi_restore 5
	.cfi_def_cfa 4, 4
	ret
	.cfi_endproc
LFE1544:
	.section	.text$_ZSt5floorf,"x"
	.linkonce discard
	.globl	__ZSt5floorf
	.def	__ZSt5floorf;	.scl	2;	.type	32;	.endef
__ZSt5floorf:
LFB1547:
	.loc 4 261 3
	.cfi_startproc
	pushl	%ebp
	.cfi_def_cfa_offset 8
	.cfi_offset 5, -8
	movl	%esp, %ebp
	.cfi_def_cfa_register 5
	subl	$4, %esp
	.loc 4 261 28
	flds	8(%ebp)
	fnstcw	-2(%ebp)
	movzwl	-2(%ebp), %eax
	andb	$-13, %ah
	orb	$4, %ah
	movw	%ax, -4(%ebp)
	fldcw	-4(%ebp)
	frndint
	fldcw	-2(%ebp)
	.loc 4 261 35
	leave
	.cfi_restore 5
	.cfi_def_cfa 4, 4
	ret
	.cfi_endproc
LFE1547:
	.section	.text$_ZSt4fmodff,"x"
	.linkonce discard
	.globl	__ZSt4fmodff
	.def	__ZSt4fmodff;	.scl	2;	.type	32;	.endef
__ZSt4fmodff:
LFB1550:
	.loc 4 280 3
	.cfi_startproc
	pushl	%ebp
	.cfi_def_cfa_offset 8
	.cfi_offset 5, -8
	movl	%esp, %ebp
	.cfi_def_cfa_register 5
	subl	$24, %esp
	.loc 4 280 27
	flds	12(%ebp)
	fstps	4(%esp)
	flds	8(%ebp)
	fstps	(%esp)
	call	_fmodf
	.loc 4 280 39
	leave
	.cfi_restore 5
	.cfi_def_cfa 4, 4
	ret
	.cfi_endproc
LFE1550:
	.section	.text$_ZSt5frexpfPi,"x"
	.linkonce discard
	.globl	__ZSt5frexpfPi
	.def	__ZSt5frexpfPi;	.scl	2;	.type	32;	.endef
__ZSt5frexpfPi:
LFB1553:
	.loc 4 301 3
	.cfi_startproc
	pushl	%ebp
	.cfi_def_cfa_offset 8
	.cfi_offset 5, -8
	movl	%esp, %ebp
	.cfi_def_cfa_register 5
	subl	$24, %esp
	.loc 4 301 28
	movl	12(%ebp), %eax
	movl	%eax, 4(%esp)
	flds	8(%ebp)
	fstps	(%esp)
	call	_frexpf
	.loc 4 301 42
	leave
	.cfi_restore 5
	.cfi_def_cfa 4, 4
	ret
	.cfi_endproc
LFE1553:
	.section	.text$_ZSt5ldexpfi,"x"
	.linkonce discard
	.globl	__ZSt5ldexpfi
	.def	__ZSt5ldexpfi;	.scl	2;	.type	32;	.endef
__ZSt5ldexpfi:
LFB1556:
	.loc 4 320 3
	.cfi_startproc
	pushl	%ebp
	.cfi_def_cfa_offset 8
	.cfi_offset 5, -8
	movl	%esp, %ebp
	.cfi_def_cfa_register 5
	subl	$24, %esp
	.loc 4 320 28
	movl	12(%ebp), %eax
	movl	%eax, 4(%esp)
	flds	8(%ebp)
	fstps	(%esp)
	call	_ldexpf
	.loc 4 320 42
	leave
	.cfi_restore 5
	.cfi_def_cfa 4, 4
	ret
	.cfi_endproc
LFE1556:
	.section	.text$_ZSt3powff,"x"
	.linkonce discard
	.globl	__ZSt3powff
	.def	__ZSt3powff;	.scl	2;	.type	32;	.endef
__ZSt3powff:
LFB1567:
	.loc 4 389 3
	.cfi_startproc
	pushl	%ebp
	.cfi_def_cfa_offset 8
	.cfi_offset 5, -8
	movl	%esp, %ebp
	.cfi_def_cfa_register 5
	subl	$24, %esp
	.loc 4 389 26
	flds	12(%ebp)
	fstps	4(%esp)
	flds	8(%ebp)
	fstps	(%esp)
	call	_powf
	.loc 4 389 38
	leave
	.cfi_restore 5
	.cfi_def_cfa 4, 4
	ret
	.cfi_endproc
LFE1567:
	.section	.text$_ZSt4sqrtf,"x"
	.linkonce discard
	.globl	__ZSt4sqrtf
	.def	__ZSt4sqrtf;	.scl	2;	.type	32;	.endef
__ZSt4sqrtf:
LFB1576:
	.loc 4 464 3
	.cfi_startproc
	pushl	%ebp
	.cfi_def_cfa_offset 8
	.cfi_offset 5, -8
	movl	%esp, %ebp
	.cfi_def_cfa_register 5
	subl	$24, %esp
	.loc 4 464 27
	flds	8(%ebp)
	fstps	(%esp)
	call	_sqrtf
	.loc 4 464 34
	leave
	.cfi_restore 5
	.cfi_def_cfa 4, 4
	ret
	.cfi_endproc
LFE1576:
	.globl	_stbi_write_png_compression_level
	.data
	.align 4
_stbi_write_png_compression_level:
	.long	8
	.globl	_stbi_write_tga_with_rle
	.align 4
_stbi_write_tga_with_rle:
	.long	1
	.globl	_stbi_write_force_png_filter
	.align 4
_stbi_write_force_png_filter:
	.long	-1
.lcomm __ZL30stbi__flip_vertically_on_write,4,4
	.text
	.globl	_stbi_flip_vertically_on_write
	.def	_stbi_flip_vertically_on_write;	.scl	2;	.type	32;	.endef
_stbi_flip_vertically_on_write:
LFB1735:
	.file 5 "stb_image_write.h"
	.loc 5 262 1
	.cfi_startproc
	pushl	%ebp
	.cfi_def_cfa_offset 8
	.cfi_offset 5, -8
	movl	%esp, %ebp
	.cfi_def_cfa_register 5
	.loc 5 263 35
	movl	8(%ebp), %eax
	movl	%eax, __ZL30stbi__flip_vertically_on_write
	.loc 5 264 1
	nop
	popl	%ebp
	.cfi_restore 5
	.cfi_def_cfa 4, 4
	ret
	.cfi_endproc
LFE1735:
	.def	__ZL27stbi__start_write_callbacksP19stbi__write_contextPFvPvS1_iES1_;	.scl	3;	.type	32;	.endef
__ZL27stbi__start_write_callbacksP19stbi__write_contextPFvPvS1_iES1_:
LFB1736:
	.loc 5 276 1
	.cfi_startproc
	pushl	%ebp
	.cfi_def_cfa_offset 8
	.cfi_offset 5, -8
	movl	%esp, %ebp
	.cfi_def_cfa_register 5
	.loc 5 277 15
	movl	8(%ebp), %eax
	movl	12(%ebp), %edx
	movl	%edx, (%eax)
	.loc 5 278 15
	movl	8(%ebp), %eax
	movl	16(%ebp), %edx
	movl	%edx, 4(%eax)
	.loc 5 279 1
	nop
	popl	%ebp
	.cfi_restore 5
	.cfi_def_cfa 4, 4
	ret
	.cfi_endproc
LFE1736:
	.def	__ZL17stbi__stdio_writePvS_i;	.scl	3;	.type	32;	.endef
__ZL17stbi__stdio_writePvS_i:
LFB1737:
	.loc 5 284 1
	.cfi_startproc
	pushl	%ebp
	.cfi_def_cfa_offset 8
	.cfi_offset 5, -8
	movl	%esp, %ebp
	.cfi_def_cfa_register 5
	subl	$24, %esp
	.loc 5 285 10
	movl	16(%ebp), %eax
	movl	8(%ebp), %edx
	movl	%edx, 12(%esp)
	movl	%eax, 8(%esp)
	movl	$1, 4(%esp)
	movl	12(%ebp), %eax
	movl	%eax, (%esp)
	call	_fwrite
	.loc 5 286 1
	nop
	leave
	.cfi_restore 5
	.cfi_def_cfa 4, 4
	ret
	.cfi_endproc
LFE1737:
	.def	__ZL12stbiw__fopenPKcS0_;	.scl	3;	.type	32;	.endef
__ZL12stbiw__fopenPKcS0_:
LFB1738:
	.loc 5 304 1
	.cfi_startproc
	pushl	%ebp
	.cfi_def_cfa_offset 8
	.cfi_offset 5, -8
	movl	%esp, %ebp
	.cfi_def_cfa_register 5
	subl	$40, %esp
	.loc 5 326 13
	movl	12(%ebp), %eax
	movl	%eax, 4(%esp)
	movl	8(%ebp), %eax
	movl	%eax, (%esp)
	call	_fopen
	movl	%eax, -12(%ebp)
	.loc 5 328 11
	movl	-12(%ebp), %eax
	.loc 5 329 1
	leave
	.cfi_restore 5
	.cfi_def_cfa 4, 4
	ret
	.cfi_endproc
LFE1738:
	.section .rdata,"dr"
LC3:
	.ascii "wb\0"
	.text
	.def	__ZL22stbi__start_write_fileP19stbi__write_contextPKc;	.scl	3;	.type	32;	.endef
__ZL22stbi__start_write_fileP19stbi__write_contextPKc:
LFB1739:
	.loc 5 332 1
	.cfi_startproc
	pushl	%ebp
	.cfi_def_cfa_offset 8
	.cfi_offset 5, -8
	movl	%esp, %ebp
	.cfi_def_cfa_register 5
	subl	$40, %esp
	.loc 5 333 26
	movl	$LC3, 4(%esp)
	movl	12(%ebp), %eax
	movl	%eax, (%esp)
	call	__ZL12stbiw__fopenPKcS0_
	movl	%eax, -12(%ebp)
	.loc 5 334 31
	movl	-12(%ebp), %eax
	movl	%eax, 8(%esp)
	movl	$__ZL17stbi__stdio_writePvS_i, 4(%esp)
	movl	8(%ebp), %eax
	movl	%eax, (%esp)
	call	__ZL27stbi__start_write_callbacksP19stbi__write_contextPFvPvS1_iES1_
	.loc 5 335 13
	cmpl	$0, -12(%ebp)
	setne	%al
	.loc 5 335 16
	movzbl	%al, %eax
	.loc 5 336 1
	leave
	.cfi_restore 5
	.cfi_def_cfa 4, 4
	ret
	.cfi_endproc
LFE1739:
	.def	__ZL20stbi__end_write_fileP19stbi__write_context;	.scl	3;	.type	32;	.endef
__ZL20stbi__end_write_fileP19stbi__write_context:
LFB1740:
	.loc 5 339 1
	.cfi_startproc
	pushl	%ebp
	.cfi_def_cfa_offset 8
	.cfi_offset 5, -8
	movl	%esp, %ebp
	.cfi_def_cfa_register 5
	subl	$24, %esp
	.loc 5 340 22
	movl	8(%ebp), %eax
	movl	4(%eax), %eax
	.loc 5 340 10
	movl	%eax, (%esp)
	call	_fclose
	.loc 5 341 1
	nop
	leave
	.cfi_restore 5
	.cfi_def_cfa 4, 4
	ret
	.cfi_endproc
LFE1740:
	.section .rdata,"dr"
LC4:
	.ascii "stb_image_write.h\0"
LC5:
	.ascii "0\0"
	.text
	.def	__ZL14stbiw__writefvP19stbi__write_contextPKcPc;	.scl	3;	.type	32;	.endef
__ZL14stbiw__writefvP19stbi__write_contextPKcPc:
LFB1741:
	.loc 5 349 1
	.cfi_startproc
	pushl	%ebp
	.cfi_def_cfa_offset 8
	.cfi_offset 5, -8
	movl	%esp, %ebp
	.cfi_def_cfa_register 5
	subl	$56, %esp
L46:
	.loc 5 350 11
	movl	12(%ebp), %eax
	movzbl	(%eax), %eax
	.loc 5 350 12
	testb	%al, %al
	je	L37
LBB2:
LBB3:
	.loc 5 351 19
	movl	12(%ebp), %eax
	leal	1(%eax), %edx
	movl	%edx, 12(%ebp)
	.loc 5 351 15
	movzbl	(%eax), %eax
	movsbl	%al, %eax
	cmpl	$49, %eax
	je	L39
	cmpl	$49, %eax
	jg	L40
	cmpl	$32, %eax
	je	L47
	jmp	L42
L40:
	cmpl	$50, %eax
	je	L43
	cmpl	$52, %eax
	je	L44
	jmp	L42
L39:
LBB4:
LBB5:
	.loc 5 353 40
	movl	16(%ebp), %eax
	leal	4(%eax), %edx
	movl	%edx, 16(%ebp)
	movl	(%eax), %eax
	movb	%al, -9(%ebp)
	.loc 5 354 25
	movl	8(%ebp), %eax
	movl	(%eax), %eax
	.loc 5 354 29
	movl	8(%ebp), %edx
	movl	4(%edx), %edx
	movl	$1, 8(%esp)
	leal	-9(%ebp), %ecx
	movl	%ecx, 4(%esp)
	movl	%edx, (%esp)
	call	*%eax
LVL0:
	.loc 5 355 22
	nop
	jmp	L45
L43:
LBE5:
LBB6:
	.loc 5 356 30
	movl	16(%ebp), %eax
	leal	4(%eax), %edx
	movl	%edx, 16(%ebp)
	movl	(%eax), %eax
	movl	%eax, -16(%ebp)
	.loc 5 358 27
	movl	-16(%ebp), %eax
	movb	%al, -18(%ebp)
	.loc 5 359 29
	movl	-16(%ebp), %eax
	sarl	$8, %eax
	.loc 5 359 27
	movb	%al, -17(%ebp)
	.loc 5 360 25
	movl	8(%ebp), %eax
	movl	(%eax), %eax
	.loc 5 360 29
	movl	8(%ebp), %edx
	movl	4(%edx), %edx
	movl	$2, 8(%esp)
	leal	-18(%ebp), %ecx
	movl	%ecx, 4(%esp)
	movl	%edx, (%esp)
	call	*%eax
LVL1:
	.loc 5 361 22
	nop
	jmp	L45
L44:
LBE6:
LBB7:
	.loc 5 362 39
	movl	16(%ebp), %eax
	leal	4(%eax), %edx
	movl	%edx, 16(%ebp)
	movl	(%eax), %eax
	movl	%eax, -24(%ebp)
	.loc 5 364 26
	movl	-24(%ebp), %eax
	movb	%al, -28(%ebp)
	.loc 5 365 27
	movl	-24(%ebp), %eax
	shrl	$8, %eax
	.loc 5 365 26
	movb	%al, -27(%ebp)
	.loc 5 366 27
	movl	-24(%ebp), %eax
	shrl	$16, %eax
	.loc 5 366 26
	movb	%al, -26(%ebp)
	.loc 5 367 27
	movl	-24(%ebp), %eax
	shrl	$24, %eax
	.loc 5 367 26
	movb	%al, -25(%ebp)
	.loc 5 368 25
	movl	8(%ebp), %eax
	movl	(%eax), %eax
	.loc 5 368 29
	movl	8(%ebp), %edx
	movl	4(%edx), %edx
	movl	$4, 8(%esp)
	leal	-28(%ebp), %ecx
	movl	%ecx, 4(%esp)
	movl	%edx, (%esp)
	call	*%eax
LVL2:
	.loc 5 369 22
	nop
	jmp	L45
L42:
LBE7:
	.loc 5 371 13
	movl	$371, 8(%esp)
	movl	$LC4, 4(%esp)
	movl	$LC5, (%esp)
	call	__assert
	.loc 5 372 13
	jmp	L37
L47:
	.loc 5 352 20
	nop
L45:
LBE4:
LBE3:
LBE2:
	.loc 5 350 4 discriminator 1
	jmp	L46
L37:
	.loc 5 375 1
	leave
	.cfi_restore 5
	.cfi_def_cfa 4, 4
	ret
	.cfi_endproc
LFE1741:
	.def	__ZL13stbiw__writefP19stbi__write_contextPKcz;	.scl	3;	.type	32;	.endef
__ZL13stbiw__writefP19stbi__write_contextPKcz:
LFB1742:
	.loc 5 378 1
	.cfi_startproc
	pushl	%ebp
	.cfi_def_cfa_offset 8
	.cfi_offset 5, -8
	movl	%esp, %ebp
	.cfi_def_cfa_register 5
	subl	$40, %esp
	.loc 5 380 4
	leal	16(%ebp), %eax
	movl	%eax, -12(%ebp)
	.loc 5 381 18
	movl	-12(%ebp), %eax
	movl	%eax, 8(%esp)
	movl	12(%ebp), %eax
	movl	%eax, 4(%esp)
	movl	8(%ebp), %eax
	movl	%eax, (%esp)
	call	__ZL14stbiw__writefvP19stbi__write_contextPKcPc
	.loc 5 383 1
	nop
	leave
	.cfi_restore 5
	.cfi_def_cfa 4, 4
	ret
	.cfi_endproc
LFE1742:
	.def	__ZL18stbiw__write_flushP19stbi__write_context;	.scl	3;	.type	32;	.endef
__ZL18stbiw__write_flushP19stbi__write_context:
LFB1743:
	.loc 5 386 1
	.cfi_startproc
	pushl	%ebp
	.cfi_def_cfa_offset 8
	.cfi_offset 5, -8
	movl	%esp, %ebp
	.cfi_def_cfa_register 5
	pushl	%ebx
	subl	$20, %esp
	.cfi_offset 3, -12
	.loc 5 387 11
	movl	8(%ebp), %eax
	movl	72(%eax), %eax
	.loc 5 387 4
	testl	%eax, %eax
	je	L51
	.loc 5 388 10
	movl	8(%ebp), %eax
	movl	(%eax), %eax
	.loc 5 388 14
	movl	8(%ebp), %edx
	movl	72(%edx), %ecx
	.loc 5 388 27
	movl	8(%ebp), %edx
	leal	8(%edx), %ebx
	.loc 5 388 14
	movl	8(%ebp), %edx
	movl	4(%edx), %edx
	movl	%ecx, 8(%esp)
	movl	%ebx, 4(%esp)
	movl	%edx, (%esp)
	call	*%eax
LVL3:
	.loc 5 389 19
	movl	8(%ebp), %eax
	movl	$0, 72(%eax)
L51:
	.loc 5 391 1
	nop
	addl	$20, %esp
	popl	%ebx
	.cfi_restore 3
	popl	%ebp
	.cfi_restore 5
	.cfi_def_cfa 4, 4
	ret
	.cfi_endproc
LFE1743:
	.def	__ZL11stbiw__putcP19stbi__write_contexth;	.scl	3;	.type	32;	.endef
__ZL11stbiw__putcP19stbi__write_contexth:
LFB1744:
	.loc 5 394 1
	.cfi_startproc
	pushl	%ebp
	.cfi_def_cfa_offset 8
	.cfi_offset 5, -8
	movl	%esp, %ebp
	.cfi_def_cfa_register 5
	subl	$40, %esp
	movl	12(%ebp), %eax
	movb	%al, -12(%ebp)
	.loc 5 395 7
	movl	8(%ebp), %eax
	movl	(%eax), %eax
	.loc 5 395 11
	movl	8(%ebp), %edx
	movl	4(%edx), %edx
	movl	$1, 8(%esp)
	leal	-12(%ebp), %ecx
	movl	%ecx, 4(%esp)
	movl	%edx, (%esp)
	call	*%eax
LVL4:
	.loc 5 396 1
	nop
	leave
	.cfi_restore 5
	.cfi_def_cfa 4, 4
	ret
	.cfi_endproc
LFE1744:
	.def	__ZL13stbiw__write1P19stbi__write_contexth;	.scl	3;	.type	32;	.endef
__ZL13stbiw__write1P19stbi__write_contexth:
LFB1745:
	.loc 5 399 1
	.cfi_startproc
	pushl	%ebp
	.cfi_def_cfa_offset 8
	.cfi_offset 5, -8
	movl	%esp, %ebp
	.cfi_def_cfa_register 5
	subl	$40, %esp
	movl	12(%ebp), %eax
	movb	%al, -12(%ebp)
	.loc 5 400 11
	movl	8(%ebp), %eax
	movl	72(%eax), %eax
	.loc 5 400 20
	addl	$1, %eax
	.loc 5 400 4
	cmpl	$64, %eax
	jbe	L54
	.loc 5 401 25
	movl	8(%ebp), %eax
	movl	%eax, (%esp)
	call	__ZL18stbiw__write_flushP19stbi__write_context
L54:
	.loc 5 402 17
	movl	8(%ebp), %eax
	movl	72(%eax), %eax
	.loc 5 402 25
	leal	1(%eax), %ecx
	movl	8(%ebp), %edx
	movl	%ecx, 72(%edx)
	.loc 5 402 29
	movl	8(%ebp), %edx
	movzbl	-12(%ebp), %ecx
	movb	%cl, 8(%edx,%eax)
	.loc 5 403 1
	nop
	leave
	.cfi_restore 5
	.cfi_def_cfa 4, 4
	ret
	.cfi_endproc
LFE1745:
	.def	__ZL13stbiw__write3P19stbi__write_contexthhh;	.scl	3;	.type	32;	.endef
__ZL13stbiw__write3P19stbi__write_contexthhh:
LFB1746:
	.loc 5 406 1
	.cfi_startproc
	pushl	%ebp
	.cfi_def_cfa_offset 8
	.cfi_offset 5, -8
	movl	%esp, %ebp
	.cfi_def_cfa_register 5
	subl	$56, %esp
	movl	12(%ebp), %ecx
	movl	16(%ebp), %edx
	movl	20(%ebp), %eax
	movb	%cl, -28(%ebp)
	movb	%dl, -32(%ebp)
	movb	%al, -36(%ebp)
	.loc 5 408 11
	movl	8(%ebp), %eax
	movl	72(%eax), %eax
	.loc 5 408 20
	addl	$3, %eax
	.loc 5 408 4
	cmpl	$64, %eax
	jbe	L56
	.loc 5 409 25
	movl	8(%ebp), %eax
	movl	%eax, (%esp)
	call	__ZL18stbiw__write_flushP19stbi__write_context
L56:
	.loc 5 410 6
	movl	8(%ebp), %eax
	movl	72(%eax), %eax
	movl	%eax, -12(%ebp)
	.loc 5 411 19
	movl	-12(%ebp), %eax
	leal	3(%eax), %edx
	.loc 5 411 16
	movl	8(%ebp), %eax
	movl	%edx, 72(%eax)
	.loc 5 412 19
	movl	8(%ebp), %edx
	movl	-12(%ebp), %eax
	addl	%edx, %eax
	leal	8(%eax), %edx
	movzbl	-28(%ebp), %eax
	movb	%al, (%edx)
	.loc 5 413 15
	movl	-12(%ebp), %eax
	leal	1(%eax), %ecx
	.loc 5 413 19
	movl	8(%ebp), %eax
	movzbl	-32(%ebp), %edx
	movb	%dl, 8(%eax,%ecx)
	.loc 5 414 15
	movl	-12(%ebp), %eax
	leal	2(%eax), %ecx
	.loc 5 414 19
	movl	8(%ebp), %eax
	movzbl	-36(%ebp), %edx
	movb	%dl, 8(%eax,%ecx)
	.loc 5 415 1
	nop
	leave
	.cfi_restore 5
	.cfi_def_cfa 4, 4
	ret
	.cfi_endproc
LFE1746:
	.def	__ZL18stbiw__write_pixelP19stbi__write_contextiiiiPh;	.scl	3;	.type	32;	.endef
__ZL18stbiw__write_pixelP19stbi__write_contextiiiiPh:
LFB1747:
	.loc 5 418 1
	.cfi_startproc
	pushl	%ebp
	.cfi_def_cfa_offset 8
	.cfi_offset 5, -8
	movl	%esp, %ebp
	.cfi_def_cfa_register 5
	pushl	%ebx
	subl	$36, %esp
	.cfi_offset 3, -12
	.loc 5 419 18
	movb	$-1, -15(%ebp)
	movb	$0, -14(%ebp)
	movb	$-1, -13(%ebp)
	.loc 5 422 4
	cmpl	$0, 20(%ebp)
	jns	L58
	.loc 5 423 34
	movl	16(%ebp), %eax
	leal	-1(%eax), %edx
	movl	28(%ebp), %eax
	addl	%edx, %eax
	movzbl	(%eax), %eax
	.loc 5 423 20
	movzbl	%al, %eax
	movl	%eax, 4(%esp)
	movl	8(%ebp), %eax
	movl	%eax, (%esp)
	call	__ZL13stbiw__write1P19stbi__write_contexth
L58:
	cmpl	$3, 16(%ebp)
	je	L59
	cmpl	$3, 16(%ebp)
	jg	L60
	cmpl	$0, 16(%ebp)
	jle	L61
	jmp	L69
L60:
	cmpl	$4, 16(%ebp)
	je	L63
	jmp	L61
L69:
	.loc 5 428 10
	cmpl	$0, 24(%ebp)
	je	L64
	.loc 5 429 45
	movl	28(%ebp), %eax
	movzbl	(%eax), %eax
	.loc 5 429 26
	movzbl	%al, %ecx
	.loc 5 429 39
	movl	28(%ebp), %eax
	movzbl	(%eax), %eax
	.loc 5 429 26
	movzbl	%al, %edx
	.loc 5 429 33
	movl	28(%ebp), %eax
	movzbl	(%eax), %eax
	.loc 5 429 26
	movzbl	%al, %eax
	movl	%ecx, 12(%esp)
	movl	%edx, 8(%esp)
	movl	%eax, 4(%esp)
	movl	8(%ebp), %eax
	movl	%eax, (%esp)
	call	__ZL13stbiw__write3P19stbi__write_contexthhh
	.loc 5 432 10
	jmp	L61
L64:
	.loc 5 431 33
	movl	28(%ebp), %eax
	movzbl	(%eax), %eax
	.loc 5 431 26
	movzbl	%al, %eax
	movl	%eax, 4(%esp)
	movl	8(%ebp), %eax
	movl	%eax, (%esp)
	call	__ZL13stbiw__write1P19stbi__write_contexth
	.loc 5 432 10
	jmp	L61
L63:
	.loc 5 434 10
	cmpl	$0, 20(%ebp)
	jne	L59
	.loc 5 436 20
	movl	$0, -12(%ebp)
L67:
	.loc 5 436 27 discriminator 3
	cmpl	$2, -12(%ebp)
	jg	L66
	.loc 5 437 28 discriminator 2
	leal	-15(%ebp), %edx
	movl	-12(%ebp), %eax
	addl	%edx, %eax
	movzbl	(%eax), %ebx
	.loc 5 437 37 discriminator 2
	movl	-12(%ebp), %edx
	movl	28(%ebp), %eax
	addl	%edx, %eax
	movzbl	(%eax), %eax
	movzbl	%al, %edx
	.loc 5 437 45 discriminator 2
	leal	-15(%ebp), %ecx
	movl	-12(%ebp), %eax
	addl	%ecx, %eax
	movzbl	(%eax), %eax
	movzbl	%al, %eax
	.loc 5 437 39 discriminator 2
	subl	%eax, %edx
	.loc 5 437 53 discriminator 2
	movl	28(%ebp), %eax
	addl	$3, %eax
	movzbl	(%eax), %eax
	movzbl	%al, %eax
	.loc 5 437 48 discriminator 2
	movl	%edx, %ecx
	imull	%eax, %ecx
	.loc 5 437 56 discriminator 2
	movl	$-2139062143, %edx
	movl	%ecx, %eax
	imull	%edx
	leal	(%edx,%ecx), %eax
	sarl	$7, %eax
	movl	%eax, %edx
	movl	%ecx, %eax
	sarl	$31, %eax
	subl	%eax, %edx
	movl	%edx, %eax
	.loc 5 437 30 discriminator 2
	leal	(%ebx,%eax), %edx
	.loc 5 437 22 discriminator 2
	leal	-18(%ebp), %ecx
	movl	-12(%ebp), %eax
	addl	%ecx, %eax
	movb	%dl, (%eax)
	.loc 5 436 13 discriminator 2
	addl	$1, -12(%ebp)
	jmp	L67
L66:
	.loc 5 438 59
	movl	12(%ebp), %eax
	addl	$1, %eax
	.loc 5 438 68
	movzbl	-18(%ebp,%eax), %eax
	.loc 5 438 26
	movzbl	%al, %ecx
	.loc 5 438 51
	movzbl	-17(%ebp), %eax
	.loc 5 438 26
	movzbl	%al, %edx
	.loc 5 438 35
	movl	$1, %eax
	subl	12(%ebp), %eax
	.loc 5 438 44
	movzbl	-18(%ebp,%eax), %eax
	.loc 5 438 26
	movzbl	%al, %eax
	movl	%ecx, 12(%esp)
	movl	%edx, 8(%esp)
	movl	%eax, 4(%esp)
	movl	8(%ebp), %eax
	movl	%eax, (%esp)
	call	__ZL13stbiw__write3P19stbi__write_contexthhh
	.loc 5 439 13
	jmp	L61
L59:
	.loc 5 443 53
	movl	12(%ebp), %eax
	addl	$1, %eax
	movl	%eax, %edx
	.loc 5 443 62
	movl	28(%ebp), %eax
	addl	%edx, %eax
	movzbl	(%eax), %eax
	.loc 5 443 23
	movzbl	%al, %ecx
	.loc 5 443 46
	movl	28(%ebp), %eax
	addl	$1, %eax
	movzbl	(%eax), %eax
	.loc 5 443 23
	movzbl	%al, %edx
	.loc 5 443 31
	movl	$1, %eax
	subl	12(%ebp), %eax
	movl	%eax, %ebx
	.loc 5 443 40
	movl	28(%ebp), %eax
	addl	%ebx, %eax
	movzbl	(%eax), %eax
	.loc 5 443 23
	movzbl	%al, %eax
	movl	%ecx, 12(%esp)
	movl	%edx, 8(%esp)
	movl	%eax, 4(%esp)
	movl	8(%ebp), %eax
	movl	%eax, (%esp)
	call	__ZL13stbiw__write3P19stbi__write_contexthhh
	.loc 5 444 10
	nop
L61:
	.loc 5 446 4
	cmpl	$0, 20(%ebp)
	jle	L70
	.loc 5 447 34
	movl	16(%ebp), %eax
	leal	-1(%eax), %edx
	movl	28(%ebp), %eax
	addl	%edx, %eax
	movzbl	(%eax), %eax
	.loc 5 447 20
	movzbl	%al, %eax
	movl	%eax, 4(%esp)
	movl	8(%ebp), %eax
	movl	%eax, (%esp)
	call	__ZL13stbiw__write1P19stbi__write_contexth
L70:
	.loc 5 448 1
	nop
	addl	$36, %esp
	popl	%ebx
	.cfi_restore 3
	popl	%ebp
	.cfi_restore 5
	.cfi_def_cfa 4, 4
	ret
	.cfi_endproc
LFE1747:
	.def	__ZL19stbiw__write_pixelsP19stbi__write_contextiiiiiPviii;	.scl	3;	.type	32;	.endef
__ZL19stbiw__write_pixelsP19stbi__write_contextiiiiiPviii:
LFB1748:
	.loc 5 451 1
	.cfi_startproc
	pushl	%ebp
	.cfi_def_cfa_offset 8
	.cfi_offset 5, -8
	movl	%esp, %ebp
	.cfi_def_cfa_register 5
	subl	$72, %esp
	.loc 5 452 17
	movl	$0, -28(%ebp)
	.loc 5 455 4
	cmpl	$0, 24(%ebp)
	jle	L81
	.loc 5 458 38
	movl	__ZL30stbi__flip_vertically_on_write, %eax
	.loc 5 458 4
	testl	%eax, %eax
	je	L74
	.loc 5 459 12
	negl	16(%ebp)
L74:
	.loc 5 461 4
	cmpl	$0, 16(%ebp)
	jns	L75
	.loc 5 462 13
	movl	$-1, -20(%ebp)
	.loc 5 462 21
	movl	24(%ebp), %eax
	subl	$1, %eax
	movl	%eax, -16(%ebp)
	jmp	L80
L75:
	.loc 5 464 13
	movl	24(%ebp), %eax
	movl	%eax, -20(%ebp)
	.loc 5 464 21
	movl	$0, -16(%ebp)
L80:
LBB8:
	.loc 5 467 13 discriminator 1
	movl	-16(%ebp), %eax
	cmpl	-20(%ebp), %eax
	je	L71
LBB9:
LBB10:
	.loc 5 468 13
	movl	$0, -12(%ebp)
L79:
	.loc 5 468 19 discriminator 1
	movl	-12(%ebp), %eax
	cmpl	20(%ebp), %eax
	jge	L78
LBB11:
	.loc 5 469 56
	movl	-16(%ebp), %eax
	imull	20(%ebp), %eax
	movl	%eax, %edx
	.loc 5 469 58
	movl	-12(%ebp), %eax
	addl	%edx, %eax
	.loc 5 469 61
	imull	28(%ebp), %eax
	movl	%eax, %edx
	.loc 5 469 25
	movl	32(%ebp), %eax
	addl	%edx, %eax
	movl	%eax, -24(%ebp)
	.loc 5 470 28
	movl	-24(%ebp), %eax
	movl	%eax, 20(%esp)
	movl	44(%ebp), %eax
	movl	%eax, 16(%esp)
	movl	36(%ebp), %eax
	movl	%eax, 12(%esp)
	movl	28(%ebp), %eax
	movl	%eax, 8(%esp)
	movl	12(%ebp), %eax
	movl	%eax, 4(%esp)
	movl	8(%ebp), %eax
	movl	%eax, (%esp)
	call	__ZL18stbiw__write_pixelP19stbi__write_contextiiiiPh
LBE11:
	.loc 5 468 7
	addl	$1, -12(%ebp)
	jmp	L79
L78:
LBE10:
	.loc 5 472 25
	movl	8(%ebp), %eax
	movl	%eax, (%esp)
	call	__ZL18stbiw__write_flushP19stbi__write_context
	.loc 5 473 10
	movl	8(%ebp), %eax
	movl	(%eax), %eax
	.loc 5 473 14
	movl	8(%ebp), %edx
	movl	4(%edx), %edx
	movl	40(%ebp), %ecx
	movl	%ecx, 8(%esp)
	leal	-28(%ebp), %ecx
	movl	%ecx, 4(%esp)
	movl	%edx, (%esp)
	call	*%eax
LVL5:
LBE9:
	.loc 5 467 25
	movl	16(%ebp), %eax
	addl	%eax, -16(%ebp)
	.loc 5 467 4
	jmp	L80
L81:
LBE8:
	.loc 5 456 7
	nop
L71:
	.loc 5 475 1
	leave
	.cfi_restore 5
	.cfi_def_cfa 4, 4
	ret
	.cfi_endproc
LFE1748:
	.def	__ZL14stbiw__outfileP19stbi__write_contextiiiiiiPviiPKcz;	.scl	3;	.type	32;	.endef
__ZL14stbiw__outfileP19stbi__write_contextiiiiiiPviiPKcz:
LFB1749:
	.loc 5 478 1
	.cfi_startproc
	pushl	%ebp
	.cfi_def_cfa_offset 8
	.cfi_offset 5, -8
	movl	%esp, %ebp
	.cfi_def_cfa_register 5
	subl	$72, %esp
LBB12:
	.loc 5 479 4
	cmpl	$0, 24(%ebp)
	js	L83
	.loc 5 479 14 discriminator 1
	cmpl	$0, 20(%ebp)
	jns	L84
L83:
	.loc 5 480 14
	movl	$0, %eax
	jmp	L85
L84:
LBB13:
	.loc 5 483 7
	leal	52(%ebp), %eax
	movl	%eax, -12(%ebp)
	.loc 5 484 21
	movl	-12(%ebp), %eax
	movl	%eax, 8(%esp)
	movl	48(%ebp), %eax
	movl	%eax, 4(%esp)
	movl	8(%ebp), %eax
	movl	%eax, (%esp)
	call	__ZL14stbiw__writefvP19stbi__write_contextPKcPc
	.loc 5 486 26
	movl	32(%ebp), %eax
	movl	%eax, 36(%esp)
	movl	44(%ebp), %eax
	movl	%eax, 32(%esp)
	movl	40(%ebp), %eax
	movl	%eax, 28(%esp)
	movl	36(%ebp), %eax
	movl	%eax, 24(%esp)
	movl	28(%ebp), %eax
	movl	%eax, 20(%esp)
	movl	24(%ebp), %eax
	movl	%eax, 16(%esp)
	movl	20(%ebp), %eax
	movl	%eax, 12(%esp)
	movl	16(%ebp), %eax
	movl	%eax, 8(%esp)
	movl	12(%ebp), %eax
	movl	%eax, 4(%esp)
	movl	8(%ebp), %eax
	movl	%eax, (%esp)
	call	__ZL19stbiw__write_pixelsP19stbi__write_contextiiiiiPviii
	.loc 5 487 14
	movl	$1, %eax
L85:
LBE13:
LBE12:
	.loc 5 489 1 discriminator 1
	leave
	.cfi_restore 5
	.cfi_def_cfa 4, 4
	ret
	.cfi_endproc
LFE1749:
	.section .rdata,"dr"
LC6:
	.ascii "11 4 22 44 44 22 444444\0"
	.text
	.def	__ZL19stbi_write_bmp_coreP19stbi__write_contextiiiPKv;	.scl	3;	.type	32;	.endef
__ZL19stbi_write_bmp_coreP19stbi__write_contextiiiPKv:
LFB1750:
	.loc 5 492 1
	.cfi_startproc
	pushl	%ebp
	.cfi_def_cfa_offset 8
	.cfi_offset 5, -8
	movl	%esp, %ebp
	.cfi_def_cfa_register 5
	subl	$136, %esp
	.loc 5 493 17
	movl	12(%ebp), %eax
	movl	%eax, %edx
	sall	$2, %eax
	subl	%eax, %edx
	movl	%edx, %eax
	.loc 5 493 8
	andl	$3, %eax
	movl	%eax, -12(%ebp)
	.loc 5 496 30
	movl	12(%ebp), %edx
	movl	%edx, %eax
	addl	%eax, %eax
	addl	%eax, %edx
	.loc 5 496 32
	movl	-12(%ebp), %eax
	addl	%edx, %eax
	.loc 5 496 37
	imull	16(%ebp), %eax
	.loc 5 494 25
	leal	54(%eax), %edx
	movl	$0, 108(%esp)
	movl	$0, 104(%esp)
	movl	$0, 100(%esp)
	movl	$0, 96(%esp)
	movl	$0, 92(%esp)
	movl	$0, 88(%esp)
	movl	$24, 84(%esp)
	movl	$1, 80(%esp)
	movl	16(%ebp), %eax
	movl	%eax, 76(%esp)
	movl	12(%ebp), %eax
	movl	%eax, 72(%esp)
	movl	$40, 68(%esp)
	movl	$54, 64(%esp)
	movl	$0, 60(%esp)
	movl	$0, 56(%esp)
	movl	%edx, 52(%esp)
	movl	$77, 48(%esp)
	movl	$66, 44(%esp)
	movl	$LC6, 40(%esp)
	movl	-12(%ebp), %eax
	movl	%eax, 36(%esp)
	movl	$0, 32(%esp)
	movl	24(%ebp), %eax
	movl	%eax, 28(%esp)
	movl	$1, 24(%esp)
	movl	20(%ebp), %eax
	movl	%eax, 20(%esp)
	movl	16(%ebp), %eax
	movl	%eax, 16(%esp)
	movl	12(%ebp), %eax
	movl	%eax, 12(%esp)
	movl	$-1, 8(%esp)
	movl	$-1, 4(%esp)
	movl	8(%ebp), %eax
	movl	%eax, (%esp)
	call	__ZL14stbiw__outfileP19stbi__write_contextiiiiiiPviiPKcz
	.loc 5 498 1
	leave
	.cfi_restore 5
	.cfi_def_cfa 4, 4
	ret
	.cfi_endproc
LFE1750:
	.globl	_stbi_write_bmp_to_func
	.def	_stbi_write_bmp_to_func;	.scl	2;	.type	32;	.endef
_stbi_write_bmp_to_func:
LFB1751:
	.loc 5 501 1
	.cfi_startproc
	pushl	%ebp
	.cfi_def_cfa_offset 8
	.cfi_offset 5, -8
	movl	%esp, %ebp
	.cfi_def_cfa_register 5
	pushl	%edi
	subl	$116, %esp
	.cfi_offset 7, -12
	.loc 5 502 24
	leal	-84(%ebp), %edx
	movl	$0, %eax
	movl	$19, %ecx
	movl	%edx, %edi
	rep stosl
	.loc 5 503 31
	movl	12(%ebp), %eax
	movl	%eax, 8(%esp)
	movl	8(%ebp), %eax
	movl	%eax, 4(%esp)
	leal	-84(%ebp), %eax
	movl	%eax, (%esp)
	call	__ZL27stbi__start_write_callbacksP19stbi__write_contextPFvPvS1_iES1_
	.loc 5 504 30
	movl	28(%ebp), %eax
	movl	%eax, 16(%esp)
	movl	24(%ebp), %eax
	movl	%eax, 12(%esp)
	movl	20(%ebp), %eax
	movl	%eax, 8(%esp)
	movl	16(%ebp), %eax
	movl	%eax, 4(%esp)
	leal	-84(%ebp), %eax
	movl	%eax, (%esp)
	call	__ZL19stbi_write_bmp_coreP19stbi__write_contextiiiPKv
	.loc 5 504 51
	nop
	.loc 5 505 1
	addl	$116, %esp
	popl	%edi
	.cfi_restore 7
	popl	%ebp
	.cfi_restore 5
	.cfi_def_cfa 4, 4
	ret
	.cfi_endproc
LFE1751:
	.globl	_stbi_write_bmp
	.def	_stbi_write_bmp;	.scl	2;	.type	32;	.endef
_stbi_write_bmp:
LFB1752:
	.loc 5 509 1
	.cfi_startproc
	pushl	%ebp
	.cfi_def_cfa_offset 8
	.cfi_offset 5, -8
	movl	%esp, %ebp
	.cfi_def_cfa_register 5
	pushl	%edi
	subl	$116, %esp
	.cfi_offset 7, -12
	.loc 5 510 24
	leal	-88(%ebp), %edx
	movl	$0, %eax
	movl	$19, %ecx
	movl	%edx, %edi
	rep stosl
LBB14:
	.loc 5 511 30
	movl	8(%ebp), %eax
	movl	%eax, 4(%esp)
	leal	-88(%ebp), %eax
	movl	%eax, (%esp)
	call	__ZL22stbi__start_write_fileP19stbi__write_contextPKc
	.loc 5 511 43
	testl	%eax, %eax
	setne	%al
	.loc 5 511 4
	testb	%al, %al
	je	L91
LBB15:
	.loc 5 512 34
	movl	24(%ebp), %eax
	movl	%eax, 16(%esp)
	movl	20(%ebp), %eax
	movl	%eax, 12(%esp)
	movl	16(%ebp), %eax
	movl	%eax, 8(%esp)
	movl	12(%ebp), %eax
	movl	%eax, 4(%esp)
	leal	-88(%ebp), %eax
	movl	%eax, (%esp)
	call	__ZL19stbi_write_bmp_coreP19stbi__write_contextiiiPKv
	movl	%eax, -12(%ebp)
	.loc 5 513 27
	leal	-88(%ebp), %eax
	movl	%eax, (%esp)
	call	__ZL20stbi__end_write_fileP19stbi__write_context
	.loc 5 514 14
	movl	-12(%ebp), %eax
	jmp	L93
L91:
LBE15:
	.loc 5 516 14
	movl	$0, %eax
L93:
LBE14:
	.loc 5 517 1 discriminator 1
	addl	$116, %esp
	popl	%edi
	.cfi_restore 7
	popl	%ebp
	.cfi_restore 5
	.cfi_def_cfa 4, 4
	ret
	.cfi_endproc
LFE1752:
	.section .rdata,"dr"
LC7:
	.ascii "111 221 2222 11\0"
	.text
	.def	__ZL19stbi_write_tga_coreP19stbi__write_contextiiiPv;	.scl	3;	.type	32;	.endef
__ZL19stbi_write_tga_coreP19stbi__write_contextiiiPv:
LFB1753:
	.loc 5 521 1
	.cfi_startproc
	pushl	%ebp
	.cfi_def_cfa_offset 8
	.cfi_offset 5, -8
	movl	%esp, %ebp
	.cfi_def_cfa_register 5
	subl	$168, %esp
	.loc 5 522 31
	cmpl	$2, 20(%ebp)
	je	L95
	.loc 5 522 31 is_stmt 0 discriminator 2
	cmpl	$4, 20(%ebp)
	jne	L96
L95:
	.loc 5 522 31 discriminator 3
	movl	$1, %eax
	jmp	L97
L96:
	.loc 5 522 31 discriminator 4
	movl	$0, %eax
L97:
	.loc 5 522 8 is_stmt 1 discriminator 6
	movzbl	%al, %eax
	movl	%eax, -44(%ebp)
	.loc 5 523 31 discriminator 6
	cmpl	$0, -44(%ebp)
	je	L98
	.loc 5 523 31 is_stmt 0 discriminator 1
	movl	20(%ebp), %eax
	subl	$1, %eax
	jmp	L99
L98:
	.loc 5 523 31 discriminator 2
	movl	20(%ebp), %eax
L99:
	.loc 5 523 8 is_stmt 1 discriminator 4
	movl	%eax, -48(%ebp)
	.loc 5 524 32 discriminator 4
	cmpl	$1, -48(%ebp)
	jg	L100
	.loc 5 524 32 is_stmt 0 discriminator 1
	movl	$3, %eax
	jmp	L101
L100:
	.loc 5 524 32 discriminator 2
	movl	$2, %eax
L101:
	.loc 5 524 8 is_stmt 1 discriminator 4
	movl	%eax, -52(%ebp)
	.loc 5 526 4 discriminator 4
	cmpl	$0, 16(%ebp)
	js	L102
	.loc 5 526 14 discriminator 1
	cmpl	$0, 12(%ebp)
	jns	L103
L102:
	.loc 5 527 14
	movl	$0, %eax
	jmp	L104
L103:
LBB16:
	.loc 5 529 8
	movl	_stbi_write_tga_with_rle, %eax
	.loc 5 529 4
	testl	%eax, %eax
	jne	L105
	.loc 5 530 28
	movl	-44(%ebp), %eax
	leal	0(,%eax,8), %edx
	.loc 5 531 76
	movl	-48(%ebp), %ecx
	movl	-44(%ebp), %eax
	addl	%ecx, %eax
	.loc 5 530 28
	sall	$3, %eax
	movl	%edx, 88(%esp)
	movl	%eax, 84(%esp)
	movl	16(%ebp), %eax
	movl	%eax, 80(%esp)
	movl	12(%ebp), %eax
	movl	%eax, 76(%esp)
	movl	$0, 72(%esp)
	movl	$0, 68(%esp)
	movl	$0, 64(%esp)
	movl	$0, 60(%esp)
	movl	$0, 56(%esp)
	movl	-52(%ebp), %eax
	movl	%eax, 52(%esp)
	movl	$0, 48(%esp)
	movl	$0, 44(%esp)
	movl	$LC7, 40(%esp)
	movl	$0, 36(%esp)
	movl	-44(%ebp), %eax
	movl	%eax, 32(%esp)
	movl	24(%ebp), %eax
	movl	%eax, 28(%esp)
	movl	$0, 24(%esp)
	movl	20(%ebp), %eax
	movl	%eax, 20(%esp)
	movl	16(%ebp), %eax
	movl	%eax, 16(%esp)
	movl	12(%ebp), %eax
	movl	%eax, 12(%esp)
	movl	$-1, 8(%esp)
	movl	$-1, 4(%esp)
	movl	8(%ebp), %eax
	movl	%eax, (%esp)
	call	__ZL14stbiw__outfileP19stbi__write_contextiiiiiiPviiPKcz
	.loc 5 531 107
	jmp	L104
L105:
LBB17:
	.loc 5 536 20
	movl	-44(%ebp), %eax
	leal	0(,%eax,8), %ecx
	.loc 5 536 85
	movl	-48(%ebp), %edx
	movl	-44(%ebp), %eax
	addl	%edx, %eax
	.loc 5 536 20
	sall	$3, %eax
	movl	-52(%ebp), %edx
	addl	$8, %edx
	movl	%ecx, 52(%esp)
	movl	%eax, 48(%esp)
	movl	16(%ebp), %eax
	movl	%eax, 44(%esp)
	movl	12(%ebp), %eax
	movl	%eax, 40(%esp)
	movl	$0, 36(%esp)
	movl	$0, 32(%esp)
	movl	$0, 28(%esp)
	movl	$0, 24(%esp)
	movl	$0, 20(%esp)
	movl	%edx, 16(%esp)
	movl	$0, 12(%esp)
	movl	$0, 8(%esp)
	movl	$LC7, 4(%esp)
	movl	8(%ebp), %eax
	movl	%eax, (%esp)
	call	__ZL13stbiw__writefP19stbi__write_contextPKcz
	.loc 5 538 41
	movl	__ZL30stbi__flip_vertically_on_write, %eax
	.loc 5 538 7
	testl	%eax, %eax
	je	L106
	.loc 5 539 12
	movl	$0, -16(%ebp)
	.loc 5 540 15
	movl	16(%ebp), %eax
	movl	%eax, -24(%ebp)
	.loc 5 541 15
	movl	$1, -28(%ebp)
	jmp	L125
L106:
	.loc 5 543 12
	movl	16(%ebp), %eax
	subl	$1, %eax
	movl	%eax, -16(%ebp)
	.loc 5 544 15
	movl	$-1, -24(%ebp)
	.loc 5 545 15
	movl	$-1, -28(%ebp)
L125:
LBB18:
	.loc 5 547 16 discriminator 1
	movl	-16(%ebp), %eax
	cmpl	-24(%ebp), %eax
	je	L108
LBB19:
	.loc 5 548 58
	movl	-16(%ebp), %eax
	imull	12(%ebp), %eax
	.loc 5 548 62
	imull	20(%ebp), %eax
	movl	%eax, %edx
	.loc 5 548 25
	movl	24(%ebp), %eax
	addl	%edx, %eax
	movl	%eax, -56(%ebp)
LBB20:
	.loc 5 551 17
	movl	$0, -12(%ebp)
L124:
	.loc 5 551 24 discriminator 1
	movl	-12(%ebp), %eax
	cmpl	12(%ebp), %eax
	jge	L109
LBB21:
	.loc 5 552 44
	movl	-12(%ebp), %eax
	imull	20(%ebp), %eax
	movl	%eax, %edx
	.loc 5 552 28
	movl	-56(%ebp), %eax
	addl	%edx, %eax
	movl	%eax, -60(%ebp)
	.loc 5 553 17
	movl	$1, -36(%ebp)
	.loc 5 554 17
	movl	$1, -32(%ebp)
LBB22:
	.loc 5 556 23
	movl	12(%ebp), %eax
	subl	$1, %eax
	.loc 5 556 13
	cmpl	%eax, -12(%ebp)
	jge	L110
LBB23:
	.loc 5 557 16
	addl	$1, -32(%ebp)
	.loc 5 558 29
	movl	20(%ebp), %eax
	.loc 5 558 46
	movl	-12(%ebp), %edx
	addl	$1, %edx
	.loc 5 558 51
	imull	20(%ebp), %edx
	movl	%edx, %ecx
	.loc 5 558 41
	movl	-56(%ebp), %edx
	addl	%ecx, %edx
	.loc 5 558 29
	movl	%eax, 8(%esp)
	movl	%edx, 4(%esp)
	movl	-60(%ebp), %eax
	movl	%eax, (%esp)
	call	_memcmp
	movl	%eax, -36(%ebp)
LBB24:
	.loc 5 559 16
	cmpl	$0, -36(%ebp)
	je	L111
LBB25:
	.loc 5 560 40
	movl	-60(%ebp), %eax
	movl	%eax, -40(%ebp)
	.loc 5 561 26
	movl	-12(%ebp), %eax
	addl	$2, %eax
	movl	%eax, -20(%ebp)
L115:
	.loc 5 561 41 discriminator 1
	movl	-20(%ebp), %eax
	cmpl	12(%ebp), %eax
	jge	L110
	.loc 5 561 41 is_stmt 0 discriminator 2
	cmpl	$127, -32(%ebp)
	jg	L110
	.loc 5 562 32 is_stmt 1
	movl	20(%ebp), %eax
	.loc 5 562 47
	movl	-20(%ebp), %edx
	imull	20(%ebp), %edx
	movl	%edx, %ecx
	.loc 5 562 43
	movl	-56(%ebp), %edx
	addl	%ecx, %edx
	.loc 5 562 32
	movl	%eax, 8(%esp)
	movl	%edx, 4(%esp)
	movl	-40(%ebp), %eax
	movl	%eax, (%esp)
	call	_memcmp
	.loc 5 562 22
	testl	%eax, %eax
	je	L113
	.loc 5 563 30
	movl	20(%ebp), %eax
	addl	%eax, -40(%ebp)
	.loc 5 564 25
	addl	$1, -32(%ebp)
	jmp	L126
L113:
	.loc 5 566 25
	subl	$1, -32(%ebp)
	.loc 5 567 25
	jmp	L110
L126:
	.loc 5 561 19 discriminator 3
	addl	$1, -20(%ebp)
	jmp	L115
L111:
LBE25:
	.loc 5 571 26
	movl	-12(%ebp), %eax
	addl	$2, %eax
	movl	%eax, -20(%ebp)
L119:
	.loc 5 571 41 discriminator 1
	movl	-20(%ebp), %eax
	cmpl	12(%ebp), %eax
	jge	L110
	.loc 5 571 41 is_stmt 0 discriminator 2
	cmpl	$127, -32(%ebp)
	jg	L110
	.loc 5 572 33 is_stmt 1
	movl	20(%ebp), %eax
	.loc 5 572 49
	movl	-20(%ebp), %edx
	imull	20(%ebp), %edx
	movl	%edx, %ecx
	.loc 5 572 45
	movl	-56(%ebp), %edx
	addl	%ecx, %edx
	.loc 5 572 33
	movl	%eax, 8(%esp)
	movl	%edx, 4(%esp)
	movl	-60(%ebp), %eax
	movl	%eax, (%esp)
	call	_memcmp
	.loc 5 572 22
	testl	%eax, %eax
	jne	L127
	.loc 5 573 25
	addl	$1, -32(%ebp)
	.loc 5 571 19
	addl	$1, -20(%ebp)
	jmp	L119
L127:
	.loc 5 575 25
	nop
L110:
LBE24:
LBE23:
LBE22:
LBB26:
	.loc 5 581 13
	cmpl	$0, -36(%ebp)
	je	L120
LBB27:
	.loc 5 582 39
	movl	-32(%ebp), %eax
	.loc 5 582 30
	subl	$1, %eax
	movb	%al, -61(%ebp)
	.loc 5 583 29
	movzbl	-61(%ebp), %eax
	movl	%eax, 4(%esp)
	movl	8(%ebp), %eax
	movl	%eax, (%esp)
	call	__ZL13stbiw__write1P19stbi__write_contexth
	.loc 5 584 23
	movl	$0, -20(%ebp)
L122:
	.loc 5 584 30 discriminator 3
	movl	-20(%ebp), %eax
	cmpl	-32(%ebp), %eax
	jge	L123
	.loc 5 585 75 discriminator 2
	movl	-20(%ebp), %eax
	imull	20(%ebp), %eax
	movl	%eax, %edx
	.loc 5 585 37 discriminator 2
	movl	-60(%ebp), %eax
	addl	%edx, %eax
	movl	%eax, 20(%esp)
	movl	$0, 16(%esp)
	movl	-44(%ebp), %eax
	movl	%eax, 12(%esp)
	movl	20(%ebp), %eax
	movl	%eax, 8(%esp)
	movl	$-1, 4(%esp)
	movl	8(%ebp), %eax
	movl	%eax, (%esp)
	call	__ZL18stbiw__write_pixelP19stbi__write_contextiiiiPh
	.loc 5 584 16 discriminator 2
	addl	$1, -20(%ebp)
	jmp	L122
L120:
LBE27:
LBB28:
	.loc 5 588 39
	movl	-32(%ebp), %eax
	.loc 5 588 30
	addl	$127, %eax
	movb	%al, -62(%ebp)
	.loc 5 589 29
	movzbl	-62(%ebp), %eax
	movl	%eax, 4(%esp)
	movl	8(%ebp), %eax
	movl	%eax, (%esp)
	call	__ZL13stbiw__write1P19stbi__write_contexth
	.loc 5 590 34
	movl	-60(%ebp), %eax
	movl	%eax, 20(%esp)
	movl	$0, 16(%esp)
	movl	-44(%ebp), %eax
	movl	%eax, 12(%esp)
	movl	20(%ebp), %eax
	movl	%eax, 8(%esp)
	movl	$-1, 4(%esp)
	movl	8(%ebp), %eax
	movl	%eax, (%esp)
	call	__ZL18stbiw__write_pixelP19stbi__write_contextiiiiPh
L123:
LBE28:
LBE26:
LBE21:
	.loc 5 551 31 discriminator 2
	movl	-32(%ebp), %eax
	addl	%eax, -12(%ebp)
	.loc 5 551 10 discriminator 2
	jmp	L124
L109:
LBE20:
LBE19:
	.loc 5 547 27
	movl	-28(%ebp), %eax
	addl	%eax, -16(%ebp)
	.loc 5 547 7
	jmp	L125
L108:
LBE18:
	.loc 5 594 25
	movl	8(%ebp), %eax
	movl	%eax, (%esp)
	call	__ZL18stbiw__write_flushP19stbi__write_context
LBE17:
LBE16:
	.loc 5 596 11
	movl	$1, %eax
L104:
	.loc 5 597 1
	leave
	.cfi_restore 5
	.cfi_def_cfa 4, 4
	ret
	.cfi_endproc
LFE1753:
	.globl	_stbi_write_tga_to_func
	.def	_stbi_write_tga_to_func;	.scl	2;	.type	32;	.endef
_stbi_write_tga_to_func:
LFB1754:
	.loc 5 600 1
	.cfi_startproc
	pushl	%ebp
	.cfi_def_cfa_offset 8
	.cfi_offset 5, -8
	movl	%esp, %ebp
	.cfi_def_cfa_register 5
	pushl	%edi
	subl	$116, %esp
	.cfi_offset 7, -12
	.loc 5 601 24
	leal	-84(%ebp), %edx
	movl	$0, %eax
	movl	$19, %ecx
	movl	%edx, %edi
	rep stosl
	.loc 5 602 31
	movl	12(%ebp), %eax
	movl	%eax, 8(%esp)
	movl	8(%ebp), %eax
	movl	%eax, 4(%esp)
	leal	-84(%ebp), %eax
	movl	%eax, (%esp)
	call	__ZL27stbi__start_write_callbacksP19stbi__write_contextPFvPvS1_iES1_
	.loc 5 603 30
	movl	28(%ebp), %eax
	movl	%eax, 16(%esp)
	movl	24(%ebp), %eax
	movl	%eax, 12(%esp)
	movl	20(%ebp), %eax
	movl	%eax, 8(%esp)
	movl	16(%ebp), %eax
	movl	%eax, 4(%esp)
	leal	-84(%ebp), %eax
	movl	%eax, (%esp)
	call	__ZL19stbi_write_tga_coreP19stbi__write_contextiiiPv
	.loc 5 603 60
	nop
	.loc 5 604 1
	addl	$116, %esp
	popl	%edi
	.cfi_restore 7
	popl	%ebp
	.cfi_restore 5
	.cfi_def_cfa 4, 4
	ret
	.cfi_endproc
LFE1754:
	.globl	_stbi_write_tga
	.def	_stbi_write_tga;	.scl	2;	.type	32;	.endef
_stbi_write_tga:
LFB1755:
	.loc 5 608 1
	.cfi_startproc
	pushl	%ebp
	.cfi_def_cfa_offset 8
	.cfi_offset 5, -8
	movl	%esp, %ebp
	.cfi_def_cfa_register 5
	pushl	%edi
	subl	$116, %esp
	.cfi_offset 7, -12
	.loc 5 609 24
	leal	-88(%ebp), %edx
	movl	$0, %eax
	movl	$19, %ecx
	movl	%edx, %edi
	rep stosl
LBB29:
	.loc 5 610 30
	movl	8(%ebp), %eax
	movl	%eax, 4(%esp)
	leal	-88(%ebp), %eax
	movl	%eax, (%esp)
	call	__ZL22stbi__start_write_fileP19stbi__write_contextPKc
	.loc 5 610 43
	testl	%eax, %eax
	setne	%al
	.loc 5 610 4
	testb	%al, %al
	je	L131
LBB30:
	.loc 5 611 34
	movl	24(%ebp), %eax
	movl	%eax, 16(%esp)
	movl	20(%ebp), %eax
	movl	%eax, 12(%esp)
	movl	16(%ebp), %eax
	movl	%eax, 8(%esp)
	movl	12(%ebp), %eax
	movl	%eax, 4(%esp)
	leal	-88(%ebp), %eax
	movl	%eax, (%esp)
	call	__ZL19stbi_write_tga_coreP19stbi__write_contextiiiPv
	movl	%eax, -12(%ebp)
	.loc 5 612 27
	leal	-88(%ebp), %eax
	movl	%eax, (%esp)
	call	__ZL20stbi__end_write_fileP19stbi__write_context
	.loc 5 613 14
	movl	-12(%ebp), %eax
	jmp	L133
L131:
LBE30:
	.loc 5 615 14
	movl	$0, %eax
L133:
LBE29:
	.loc 5 616 1 discriminator 1
	addl	$116, %esp
	popl	%edi
	.cfi_restore 7
	popl	%ebp
	.cfi_restore 5
	.cfi_def_cfa 4, 4
	ret
	.cfi_endproc
LFE1755:
	.def	__ZL21stbiw__linear_to_rgbePhPf;	.scl	3;	.type	32;	.endef
__ZL21stbiw__linear_to_rgbePhPf:
LFB1756:
	.loc 5 626 1
	.cfi_startproc
	pushl	%ebp
	.cfi_def_cfa_offset 8
	.cfi_offset 5, -8
	movl	%esp, %ebp
	.cfi_def_cfa_register 5
	subl	$56, %esp
	.loc 5 628 20
	movl	12(%ebp), %eax
	flds	(%eax)
	movl	12(%ebp), %eax
	addl	$4, %eax
	flds	(%eax)
	movl	12(%ebp), %eax
	addl	$8, %eax
	flds	(%eax)
	fxch	%st(1)
	fcomip	%st(1), %st
	fstp	%st(0)
	jbe	L151
	.loc 5 628 20 is_stmt 0 discriminator 1
	movl	12(%ebp), %eax
	flds	4(%eax)
	fxch	%st(1)
	jmp	L137
L151:
	.loc 5 628 20 discriminator 2
	movl	12(%ebp), %eax
	flds	8(%eax)
	fxch	%st(1)
L137:
	.loc 5 628 20 discriminator 4
	fcomip	%st(1), %st
	fstp	%st(0)
	jbe	L152
	.loc 5 628 20 discriminator 5
	movl	12(%ebp), %eax
	flds	(%eax)
	jmp	L140
L152:
	.loc 5 628 20 discriminator 6
	movl	12(%ebp), %eax
	addl	$4, %eax
	flds	(%eax)
	movl	12(%ebp), %eax
	addl	$8, %eax
	flds	(%eax)
	fxch	%st(1)
	fcomip	%st(1), %st
	fstp	%st(0)
	jbe	L153
	.loc 5 628 20 discriminator 8
	movl	12(%ebp), %eax
	flds	4(%eax)
	jmp	L140
L153:
	.loc 5 628 20 discriminator 9
	movl	12(%ebp), %eax
	flds	8(%eax)
L140:
	.loc 5 628 10 is_stmt 1 discriminator 12
	fstps	-12(%ebp)
LBB31:
	.loc 5 630 4 discriminator 12
	flds	-12(%ebp)
	flds	LC8
	fcomip	%st(1), %st
	fstp	%st(0)
	jbe	L154
	.loc 5 631 43
	movl	8(%ebp), %eax
	addl	$3, %eax
	.loc 5 631 45
	movb	$0, (%eax)
	.loc 5 631 33
	movl	8(%ebp), %edx
	addl	$2, %edx
	.loc 5 631 43
	movzbl	(%eax), %eax
	.loc 5 631 35
	movb	%al, (%edx)
	.loc 5 631 23
	movl	8(%ebp), %eax
	addl	$1, %eax
	.loc 5 631 33
	movzbl	(%edx), %edx
	.loc 5 631 25
	movb	%dl, (%eax)
	.loc 5 631 23
	movzbl	(%eax), %edx
	.loc 5 631 15
	movl	8(%ebp), %eax
	movb	%dl, (%eax)
LBE31:
	.loc 5 640 1
	jmp	L155
L154:
LBB33:
LBB32:
	.loc 5 633 38
	leal	-20(%ebp), %eax
	movl	%eax, 4(%esp)
	flds	-12(%ebp)
	fstps	(%esp)
	call	__ZSt5frexpfPi
	.loc 5 633 59
	flds	LC9
	fmulp	%st, %st(1)
	.loc 5 633 68
	fdivs	-12(%ebp)
	fstps	-16(%ebp)
	.loc 5 635 41
	movl	12(%ebp), %eax
	flds	(%eax)
	.loc 5 635 43
	fmuls	-16(%ebp)
	.loc 5 635 17
	fnstcw	-26(%ebp)
	movzwl	-26(%ebp), %eax
	orb	$12, %ah
	movw	%ax, -28(%ebp)
	fldcw	-28(%ebp)
	fistps	-30(%ebp)
	fldcw	-26(%ebp)
	movzwl	-30(%ebp), %eax
	movl	%eax, %edx
	.loc 5 635 15
	movl	8(%ebp), %eax
	movb	%dl, (%eax)
	.loc 5 636 41
	movl	12(%ebp), %eax
	addl	$4, %eax
	flds	(%eax)
	.loc 5 636 43
	fmuls	-16(%ebp)
	.loc 5 636 13
	movl	8(%ebp), %eax
	addl	$1, %eax
	.loc 5 636 17
	fldcw	-28(%ebp)
	fistps	-30(%ebp)
	fldcw	-26(%ebp)
	movzwl	-30(%ebp), %edx
	.loc 5 636 15
	movb	%dl, (%eax)
	.loc 5 637 41
	movl	12(%ebp), %eax
	addl	$8, %eax
	flds	(%eax)
	.loc 5 637 43
	fmuls	-16(%ebp)
	.loc 5 637 13
	movl	8(%ebp), %eax
	addl	$2, %eax
	.loc 5 637 17
	fldcw	-28(%ebp)
	fistps	-30(%ebp)
	fldcw	-26(%ebp)
	movzwl	-30(%ebp), %edx
	.loc 5 637 15
	movb	%dl, (%eax)
	.loc 5 638 42
	movl	-20(%ebp), %eax
	movl	%eax, %edx
	.loc 5 638 13
	movl	8(%ebp), %eax
	addl	$3, %eax
	.loc 5 638 42
	addl	$-128, %edx
	.loc 5 638 15
	movb	%dl, (%eax)
L155:
LBE32:
LBE33:
	.loc 5 640 1
	nop
	leave
	.cfi_restore 5
	.cfi_def_cfa 4, 4
	ret
	.cfi_endproc
LFE1756:
	.section .rdata,"dr"
LC10:
	.ascii "length+128 <= 255\0"
	.text
	.def	__ZL21stbiw__write_run_dataP19stbi__write_contextih;	.scl	3;	.type	32;	.endef
__ZL21stbiw__write_run_dataP19stbi__write_contextih:
LFB1757:
	.loc 5 643 1
	.cfi_startproc
	pushl	%ebp
	.cfi_def_cfa_offset 8
	.cfi_offset 5, -8
	movl	%esp, %ebp
	.cfi_def_cfa_register 5
	subl	$56, %esp
	movl	16(%ebp), %eax
	movb	%al, -28(%ebp)
	.loc 5 644 31
	movl	12(%ebp), %eax
	addl	$-128, %eax
	.loc 5 644 18
	movb	%al, -9(%ebp)
	.loc 5 645 4
	cmpl	$127, 12(%ebp)
	jle	L159
	.loc 5 645 4 is_stmt 0 discriminator 2
	movl	$645, 8(%esp)
	movl	$LC4, 4(%esp)
	movl	$LC10, (%esp)
	call	__assert
L159:
	.loc 5 646 7 is_stmt 1
	movl	8(%ebp), %eax
	movl	(%eax), %eax
	.loc 5 646 11
	movl	8(%ebp), %edx
	movl	4(%edx), %edx
	movl	$1, 8(%esp)
	leal	-9(%ebp), %ecx
	movl	%ecx, 4(%esp)
	movl	%edx, (%esp)
	call	*%eax
LVL6:
	.loc 5 647 7
	movl	8(%ebp), %eax
	movl	(%eax), %eax
	.loc 5 647 11
	movl	8(%ebp), %edx
	movl	4(%edx), %edx
	movl	$1, 8(%esp)
	leal	-28(%ebp), %ecx
	movl	%ecx, 4(%esp)
	movl	%edx, (%esp)
	call	*%eax
LVL7:
	.loc 5 648 1
	nop
	leave
	.cfi_restore 5
	.cfi_def_cfa 4, 4
	ret
	.cfi_endproc
LFE1757:
	.section .rdata,"dr"
LC11:
	.ascii "length <= 128\0"
	.text
	.def	__ZL22stbiw__write_dump_dataP19stbi__write_contextiPh;	.scl	3;	.type	32;	.endef
__ZL22stbiw__write_dump_dataP19stbi__write_contextiPh:
LFB1758:
	.loc 5 651 1
	.cfi_startproc
	pushl	%ebp
	.cfi_def_cfa_offset 8
	.cfi_offset 5, -8
	movl	%esp, %ebp
	.cfi_def_cfa_register 5
	subl	$40, %esp
	.loc 5 652 18
	movl	12(%ebp), %eax
	movb	%al, -9(%ebp)
	.loc 5 653 4
	movl	12(%ebp), %eax
	cmpl	$128, %eax
	jle	L163
	.loc 5 653 4 is_stmt 0 discriminator 2
	movl	$653, 8(%esp)
	movl	$LC4, 4(%esp)
	movl	$LC11, (%esp)
	call	__assert
L163:
	.loc 5 654 7 is_stmt 1
	movl	8(%ebp), %eax
	movl	(%eax), %eax
	.loc 5 654 11
	movl	8(%ebp), %edx
	movl	4(%edx), %edx
	movl	$1, 8(%esp)
	leal	-9(%ebp), %ecx
	movl	%ecx, 4(%esp)
	movl	%edx, (%esp)
	call	*%eax
LVL8:
	.loc 5 655 7
	movl	8(%ebp), %eax
	movl	(%eax), %eax
	.loc 5 655 11
	movl	12(%ebp), %ecx
	movl	8(%ebp), %edx
	movl	4(%edx), %edx
	movl	%ecx, 8(%esp)
	movl	16(%ebp), %ecx
	movl	%ecx, 4(%esp)
	movl	%edx, (%esp)
	call	*%eax
LVL9:
	.loc 5 656 1
	nop
	leave
	.cfi_restore 5
	.cfi_def_cfa 4, 4
	ret
	.cfi_endproc
LFE1758:
	.def	__ZL25stbiw__write_hdr_scanlineP19stbi__write_contextiiPhPf;	.scl	3;	.type	32;	.endef
__ZL25stbiw__write_hdr_scanlineP19stbi__write_contextiiPhPf:
LFB1759:
	.loc 5 659 1
	.cfi_startproc
	pushl	%ebp
	.cfi_def_cfa_offset 8
	.cfi_offset 5, -8
	movl	%esp, %ebp
	.cfi_def_cfa_register 5
	subl	$72, %esp
	.loc 5 660 18
	movb	$2, -36(%ebp)
	movb	$2, -35(%ebp)
	movb	$0, -34(%ebp)
	movb	$0, -33(%ebp)
	.loc 5 665 38
	movl	12(%ebp), %eax
	sarl	$8, %eax
	.loc 5 665 22
	movb	%al, -34(%ebp)
	.loc 5 666 22
	movl	12(%ebp), %eax
	movb	%al, -33(%ebp)
LBB34:
	.loc 5 669 4
	cmpl	$7, 12(%ebp)
	jle	L165
	.loc 5 669 18 discriminator 1
	cmpl	$32767, 12(%ebp)
	jle	L166
L165:
	.loc 5 670 13
	movl	$0, -12(%ebp)
L170:
	.loc 5 670 19 discriminator 1
	movl	-12(%ebp), %eax
	cmpl	12(%ebp), %eax
	jge	L192
	movl	16(%ebp), %eax
	subl	$3, %eax
	.loc 5 671 10
	cmpl	$1, %eax
	ja	L168
	.loc 5 673 43
	movl	-12(%ebp), %eax
	imull	16(%ebp), %eax
	.loc 5 673 53
	addl	$2, %eax
	leal	0(,%eax,4), %edx
	movl	24(%ebp), %eax
	addl	%edx, %eax
	flds	(%eax)
	.loc 5 673 31
	fstps	-44(%ebp)
	.loc 5 674 43
	movl	-12(%ebp), %eax
	imull	16(%ebp), %eax
	.loc 5 674 53
	addl	$1, %eax
	leal	0(,%eax,4), %edx
	movl	24(%ebp), %eax
	addl	%edx, %eax
	flds	(%eax)
	.loc 5 674 31
	fstps	-48(%ebp)
	.loc 5 675 43
	movl	-12(%ebp), %eax
	imull	16(%ebp), %eax
	.loc 5 675 53
	leal	0(,%eax,4), %edx
	movl	24(%ebp), %eax
	addl	%edx, %eax
	flds	(%eax)
	.loc 5 675 31
	fstps	-52(%ebp)
	.loc 5 676 21
	jmp	L169
L168:
	.loc 5 678 67
	movl	-12(%ebp), %eax
	imull	16(%ebp), %eax
	.loc 5 678 77
	leal	0(,%eax,4), %edx
	movl	24(%ebp), %eax
	addl	%edx, %eax
	flds	(%eax)
	.loc 5 678 55
	fstps	-44(%ebp)
	.loc 5 678 53
	flds	-44(%ebp)
	.loc 5 678 43
	fstps	-48(%ebp)
	.loc 5 678 41
	flds	-48(%ebp)
	.loc 5 678 31
	fstps	-52(%ebp)
	.loc 5 679 21
	nop
L169:
	.loc 5 681 31
	leal	-52(%ebp), %eax
	movl	%eax, 4(%esp)
	leal	-40(%ebp), %eax
	movl	%eax, (%esp)
	call	__ZL21stbiw__linear_to_rgbePhPf
	.loc 5 682 13
	movl	8(%ebp), %eax
	movl	(%eax), %eax
	.loc 5 682 17
	movl	8(%ebp), %edx
	movl	4(%edx), %edx
	movl	$4, 8(%esp)
	leal	-40(%ebp), %ecx
	movl	%ecx, 4(%esp)
	movl	%edx, (%esp)
	call	*%eax
LVL10:
	.loc 5 670 7
	addl	$1, -12(%ebp)
	jmp	L170
L166:
LBB35:
	.loc 5 687 13
	movl	$0, -12(%ebp)
L175:
	.loc 5 687 19 discriminator 1
	movl	-12(%ebp), %eax
	cmpl	12(%ebp), %eax
	jge	L172
	movl	16(%ebp), %eax
	subl	$3, %eax
	.loc 5 688 10
	cmpl	$1, %eax
	ja	L173
	.loc 5 690 43
	movl	-12(%ebp), %eax
	imull	16(%ebp), %eax
	.loc 5 690 53
	addl	$2, %eax
	leal	0(,%eax,4), %edx
	movl	24(%ebp), %eax
	addl	%edx, %eax
	flds	(%eax)
	.loc 5 690 31
	fstps	-44(%ebp)
	.loc 5 691 43
	movl	-12(%ebp), %eax
	imull	16(%ebp), %eax
	.loc 5 691 53
	addl	$1, %eax
	leal	0(,%eax,4), %edx
	movl	24(%ebp), %eax
	addl	%edx, %eax
	flds	(%eax)
	.loc 5 691 31
	fstps	-48(%ebp)
	.loc 5 692 43
	movl	-12(%ebp), %eax
	imull	16(%ebp), %eax
	.loc 5 692 53
	leal	0(,%eax,4), %edx
	movl	24(%ebp), %eax
	addl	%edx, %eax
	flds	(%eax)
	.loc 5 692 31
	fstps	-52(%ebp)
	.loc 5 693 21
	jmp	L174
L173:
	.loc 5 695 67
	movl	-12(%ebp), %eax
	imull	16(%ebp), %eax
	.loc 5 695 77
	leal	0(,%eax,4), %edx
	movl	24(%ebp), %eax
	addl	%edx, %eax
	flds	(%eax)
	.loc 5 695 55
	fstps	-44(%ebp)
	.loc 5 695 53
	flds	-44(%ebp)
	.loc 5 695 43
	fstps	-48(%ebp)
	.loc 5 695 41
	flds	-48(%ebp)
	.loc 5 695 31
	fstps	-52(%ebp)
	.loc 5 696 21
	nop
L174:
	.loc 5 698 31 discriminator 2
	leal	-52(%ebp), %eax
	movl	%eax, 4(%esp)
	leal	-40(%ebp), %eax
	movl	%eax, (%esp)
	call	__ZL21stbiw__linear_to_rgbePhPf
	.loc 5 699 20 discriminator 2
	movl	-12(%ebp), %edx
	.loc 5 699 29 discriminator 2
	movl	20(%ebp), %eax
	addl	%eax, %edx
	.loc 5 699 39 discriminator 2
	movzbl	-40(%ebp), %eax
	.loc 5 699 31 discriminator 2
	movb	%al, (%edx)
	.loc 5 700 20 discriminator 2
	movl	-12(%ebp), %edx
	movl	12(%ebp), %eax
	addl	%edx, %eax
	movl	%eax, %edx
	.loc 5 700 29 discriminator 2
	movl	20(%ebp), %eax
	addl	%eax, %edx
	.loc 5 700 39 discriminator 2
	movzbl	-39(%ebp), %eax
	.loc 5 700 31 discriminator 2
	movb	%al, (%edx)
	.loc 5 701 27 discriminator 2
	movl	12(%ebp), %eax
	leal	(%eax,%eax), %edx
	.loc 5 701 20 discriminator 2
	movl	-12(%ebp), %eax
	addl	%edx, %eax
	movl	%eax, %edx
	.loc 5 701 29 discriminator 2
	movl	20(%ebp), %eax
	addl	%eax, %edx
	.loc 5 701 39 discriminator 2
	movzbl	-38(%ebp), %eax
	.loc 5 701 31 discriminator 2
	movb	%al, (%edx)
	.loc 5 702 27 discriminator 2
	movl	12(%ebp), %edx
	movl	%edx, %eax
	addl	%eax, %eax
	addl	%eax, %edx
	.loc 5 702 20 discriminator 2
	movl	-12(%ebp), %eax
	addl	%edx, %eax
	movl	%eax, %edx
	.loc 5 702 29 discriminator 2
	movl	20(%ebp), %eax
	addl	%eax, %edx
	.loc 5 702 39 discriminator 2
	movzbl	-37(%ebp), %eax
	.loc 5 702 31 discriminator 2
	movb	%al, (%edx)
	.loc 5 687 7 discriminator 2
	addl	$1, -12(%ebp)
	jmp	L175
L172:
	.loc 5 705 10
	movl	8(%ebp), %eax
	movl	(%eax), %eax
	.loc 5 705 14
	movl	8(%ebp), %edx
	movl	4(%edx), %edx
	movl	$4, 8(%esp)
	leal	-36(%ebp), %ecx
	movl	%ecx, 4(%esp)
	movl	%edx, (%esp)
	call	*%eax
LVL11:
LBB36:
	.loc 5 708 13
	movl	$0, -16(%ebp)
L191:
	.loc 5 708 19 discriminator 1
	cmpl	$3, -16(%ebp)
	jg	L193
LBB37:
	.loc 5 709 46
	movl	12(%ebp), %eax
	imull	-16(%ebp), %eax
	movl	%eax, %edx
	.loc 5 709 25
	movl	20(%ebp), %eax
	addl	%edx, %eax
	movl	%eax, -32(%ebp)
	.loc 5 711 12
	movl	$0, -12(%ebp)
L190:
	.loc 5 712 19
	movl	-12(%ebp), %eax
	cmpl	12(%ebp), %eax
	jge	L176
LBB38:
	.loc 5 714 15
	movl	-12(%ebp), %eax
	movl	%eax, -20(%ebp)
L179:
	.loc 5 715 21
	movl	-20(%ebp), %eax
	addl	$2, %eax
	.loc 5 715 24
	cmpl	%eax, 12(%ebp)
	jle	L177
	.loc 5 716 26
	movl	-20(%ebp), %edx
	movl	-32(%ebp), %eax
	addl	%edx, %eax
	movzbl	(%eax), %edx
	.loc 5 716 39
	movl	-20(%ebp), %eax
	leal	1(%eax), %ecx
	movl	-32(%ebp), %eax
	addl	%ecx, %eax
	movzbl	(%eax), %eax
	.loc 5 716 16
	cmpb	%al, %dl
	jne	L178
	.loc 5 716 50 discriminator 1
	movl	-20(%ebp), %edx
	movl	-32(%ebp), %eax
	addl	%edx, %eax
	movzbl	(%eax), %edx
	.loc 5 716 63 discriminator 1
	movl	-20(%ebp), %eax
	leal	2(%eax), %ecx
	movl	-32(%ebp), %eax
	addl	%ecx, %eax
	movzbl	(%eax), %eax
	.loc 5 716 41 discriminator 1
	cmpb	%al, %dl
	je	L194
L178:
	.loc 5 718 16
	addl	$1, -20(%ebp)
	.loc 5 715 13
	jmp	L179
L194:
	.loc 5 717 19
	nop
L177:
	.loc 5 720 18
	movl	-20(%ebp), %eax
	addl	$2, %eax
	.loc 5 720 13
	cmpl	%eax, 12(%ebp)
	jg	L183
	.loc 5 721 18
	movl	12(%ebp), %eax
	movl	%eax, -20(%ebp)
L183:
	.loc 5 723 22
	movl	-12(%ebp), %eax
	cmpl	-20(%ebp), %eax
	jge	L181
LBB39:
	.loc 5 724 20
	movl	-20(%ebp), %eax
	subl	-12(%ebp), %eax
	movl	%eax, -24(%ebp)
	.loc 5 725 16
	cmpl	$128, -24(%ebp)
	jle	L182
	.loc 5 725 35 discriminator 1
	movl	$128, -24(%ebp)
L182:
	.loc 5 726 38
	movl	-12(%ebp), %edx
	movl	-32(%ebp), %eax
	addl	%edx, %eax
	movl	%eax, 8(%esp)
	movl	-24(%ebp), %eax
	movl	%eax, 4(%esp)
	movl	8(%ebp), %eax
	movl	%eax, (%esp)
	call	__ZL22stbiw__write_dump_dataP19stbi__write_contextiPh
	.loc 5 727 18
	movl	-24(%ebp), %eax
	addl	%eax, -12(%ebp)
LBE39:
	.loc 5 723 13
	jmp	L183
L181:
LBB40:
	.loc 5 730 18
	movl	-20(%ebp), %eax
	addl	$2, %eax
	.loc 5 730 13
	cmpl	%eax, 12(%ebp)
	jle	L190
L186:
LBB41:
	.loc 5 732 33
	movl	-20(%ebp), %eax
	cmpl	12(%ebp), %eax
	jge	L189
	.loc 5 732 42 discriminator 1
	movl	-20(%ebp), %edx
	movl	-32(%ebp), %eax
	addl	%edx, %eax
	movzbl	(%eax), %edx
	.loc 5 732 53 discriminator 1
	movl	-12(%ebp), %ecx
	movl	-32(%ebp), %eax
	addl	%ecx, %eax
	movzbl	(%eax), %eax
	.loc 5 732 33 discriminator 1
	cmpb	%al, %dl
	jne	L189
	.loc 5 733 19
	addl	$1, -20(%ebp)
	.loc 5 732 16
	jmp	L186
L189:
	.loc 5 735 25
	movl	-12(%ebp), %eax
	cmpl	-20(%ebp), %eax
	jge	L190
LBB42:
	.loc 5 736 23
	movl	-20(%ebp), %eax
	subl	-12(%ebp), %eax
	movl	%eax, -28(%ebp)
	.loc 5 737 19
	cmpl	$127, -28(%ebp)
	jle	L188
	.loc 5 737 38 discriminator 1
	movl	$127, -28(%ebp)
L188:
	.loc 5 738 55
	movl	-12(%ebp), %edx
	movl	-32(%ebp), %eax
	addl	%edx, %eax
	movzbl	(%eax), %eax
	.loc 5 738 40
	movzbl	%al, %eax
	movl	%eax, 8(%esp)
	movl	-28(%ebp), %eax
	movl	%eax, 4(%esp)
	movl	8(%ebp), %eax
	movl	%eax, (%esp)
	call	__ZL21stbiw__write_run_dataP19stbi__write_contextih
	.loc 5 739 21
	movl	-28(%ebp), %eax
	addl	%eax, -12(%ebp)
LBE42:
	.loc 5 735 16
	jmp	L189
L176:
LBE41:
LBE40:
LBE38:
LBE37:
	.loc 5 708 7 discriminator 2
	addl	$1, -16(%ebp)
	jmp	L191
L192:
LBE36:
LBE35:
	.loc 5 669 4
	nop
L193:
LBE34:
	.loc 5 745 1
	nop
	leave
	.cfi_restore 5
	.cfi_def_cfa 4, 4
	ret
	.cfi_endproc
LFE1759:
	.section .rdata,"dr"
	.align 4
LC13:
	.ascii "EXPOSURE=          1.0000000000000\12\12-Y %d +X %d\12\0"
	.align 4
LC12:
	.ascii "#?RADIANCE\12# Written by stb_image_write.h\12FORMAT=32-bit_rle_rgbe\12\0"
	.text
	.def	__ZL19stbi_write_hdr_coreP19stbi__write_contextiiiPf;	.scl	3;	.type	32;	.endef
__ZL19stbi_write_hdr_coreP19stbi__write_contextiiiPf:
LFB1760:
	.loc 5 748 1
	.cfi_startproc
	pushl	%ebp
	.cfi_def_cfa_offset 8
	.cfi_offset 5, -8
	movl	%esp, %ebp
	.cfi_def_cfa_register 5
	pushl	%edi
	pushl	%esi
	pushl	%ebx
	subl	$252, %esp
	.cfi_offset 7, -12
	.cfi_offset 6, -16
	.cfi_offset 3, -20
LBB43:
	.loc 5 749 4
	cmpl	$0, 16(%ebp)
	jle	L196
	.loc 5 749 15 discriminator 1
	cmpl	$0, 12(%ebp)
	jle	L196
	.loc 5 749 25 discriminator 2
	cmpl	$0, 24(%ebp)
	jne	L197
L196:
	.loc 5 750 14
	movl	$0, %eax
	jmp	L198
L197:
LBB44:
	.loc 5 753 50
	movl	12(%ebp), %eax
	sall	$2, %eax
	movl	%eax, (%esp)
	call	_malloc
	movl	%eax, -32(%ebp)
	.loc 5 756 12
	leal	-230(%ebp), %eax
	movl	$LC12, %ebx
	movl	$66, %edx
	movl	(%ebx), %ecx
	movl	%ecx, (%eax)
	movl	-4(%ebx,%edx), %ecx
	movl	%ecx, -4(%eax,%edx)
	leal	4(%eax), %edi
	andl	$-4, %edi
	subl	%edi, %eax
	subl	%eax, %ebx
	addl	%eax, %edx
	andl	$-4, %edx
	movl	%edx, %eax
	shrl	$2, %eax
	movl	%ebx, %esi
	movl	%eax, %ecx
	rep movsl
	.loc 5 757 10
	movl	8(%ebp), %eax
	movl	(%eax), %eax
	.loc 5 757 14
	movl	8(%ebp), %edx
	movl	4(%edx), %edx
	movl	$65, 8(%esp)
	leal	-230(%ebp), %ecx
	movl	%ecx, 4(%esp)
	movl	%edx, (%esp)
	call	*%eax
LVL12:
	.loc 5 760 22
	movl	12(%ebp), %eax
	movl	%eax, 16(%esp)
	movl	16(%ebp), %eax
	movl	%eax, 12(%esp)
	movl	$LC13, 8(%esp)
	movl	$128, 4(%esp)
	leal	-164(%ebp), %eax
	movl	%eax, (%esp)
	movl	__imp__sprintf_s, %eax
	call	*%eax
LVL13:
	movl	%eax, -36(%ebp)
	.loc 5 764 10
	movl	8(%ebp), %eax
	movl	(%eax), %eax
	.loc 5 764 14
	movl	8(%ebp), %edx
	movl	4(%edx), %edx
	movl	-36(%ebp), %ecx
	movl	%ecx, 8(%esp)
	leal	-164(%ebp), %ecx
	movl	%ecx, 4(%esp)
	movl	%edx, (%esp)
	call	*%eax
LVL14:
	.loc 5 766 12
	movl	$0, -28(%ebp)
L202:
	.loc 5 766 18 discriminator 1
	movl	-28(%ebp), %eax
	cmpl	16(%ebp), %eax
	jge	L199
	.loc 5 767 68
	movl	20(%ebp), %eax
	imull	12(%ebp), %eax
	movl	%eax, %edx
	.loc 5 767 113
	movl	__ZL30stbi__flip_vertically_on_write, %eax
	.loc 5 767 103
	testl	%eax, %eax
	je	L200
	.loc 5 767 106 discriminator 1
	movl	16(%ebp), %eax
	subl	$1, %eax
	.loc 5 767 103 discriminator 1
	subl	-28(%ebp), %eax
	jmp	L201
L200:
	.loc 5 767 103 is_stmt 0 discriminator 2
	movl	-28(%ebp), %eax
L201:
	.loc 5 767 70 is_stmt 1 discriminator 4
	imull	%edx, %eax
	.loc 5 767 62 discriminator 4
	leal	0(,%eax,4), %edx
	.loc 5 767 35 discriminator 4
	movl	24(%ebp), %eax
	addl	%edx, %eax
	movl	%eax, 16(%esp)
	movl	-32(%ebp), %eax
	movl	%eax, 12(%esp)
	movl	20(%ebp), %eax
	movl	%eax, 8(%esp)
	movl	12(%ebp), %eax
	movl	%eax, 4(%esp)
	movl	8(%ebp), %eax
	movl	%eax, (%esp)
	call	__ZL25stbiw__write_hdr_scanlineP19stbi__write_contextiiPhPf
	.loc 5 766 7 discriminator 4
	addl	$1, -28(%ebp)
	jmp	L202
L199:
	.loc 5 768 7
	movl	-32(%ebp), %eax
	movl	%eax, (%esp)
	call	_free
	.loc 5 769 14
	movl	$1, %eax
L198:
LBE44:
LBE43:
	.loc 5 771 1 discriminator 1
	addl	$252, %esp
	popl	%ebx
	.cfi_restore 3
	popl	%esi
	.cfi_restore 6
	popl	%edi
	.cfi_restore 7
	popl	%ebp
	.cfi_restore 5
	.cfi_def_cfa 4, 4
	ret
	.cfi_endproc
LFE1760:
	.globl	_stbi_write_hdr_to_func
	.def	_stbi_write_hdr_to_func;	.scl	2;	.type	32;	.endef
_stbi_write_hdr_to_func:
LFB1761:
	.loc 5 774 1
	.cfi_startproc
	pushl	%ebp
	.cfi_def_cfa_offset 8
	.cfi_offset 5, -8
	movl	%esp, %ebp
	.cfi_def_cfa_register 5
	pushl	%edi
	subl	$116, %esp
	.cfi_offset 7, -12
	.loc 5 775 24
	leal	-84(%ebp), %edx
	movl	$0, %eax
	movl	$19, %ecx
	movl	%edx, %edi
	rep stosl
	.loc 5 776 31
	movl	12(%ebp), %eax
	movl	%eax, 8(%esp)
	movl	8(%ebp), %eax
	movl	%eax, 4(%esp)
	leal	-84(%ebp), %eax
	movl	%eax, (%esp)
	call	__ZL27stbi__start_write_callbacksP19stbi__write_contextPFvPvS1_iES1_
	.loc 5 777 30
	movl	28(%ebp), %eax
	movl	%eax, 16(%esp)
	movl	24(%ebp), %eax
	movl	%eax, 12(%esp)
	movl	20(%ebp), %eax
	movl	%eax, 8(%esp)
	movl	16(%ebp), %eax
	movl	%eax, 4(%esp)
	leal	-84(%ebp), %eax
	movl	%eax, (%esp)
	call	__ZL19stbi_write_hdr_coreP19stbi__write_contextiiiPf
	.loc 5 777 61
	nop
	.loc 5 778 1
	addl	$116, %esp
	popl	%edi
	.cfi_restore 7
	popl	%ebp
	.cfi_restore 5
	.cfi_def_cfa 4, 4
	ret
	.cfi_endproc
LFE1761:
	.globl	_stbi_write_hdr
	.def	_stbi_write_hdr;	.scl	2;	.type	32;	.endef
_stbi_write_hdr:
LFB1762:
	.loc 5 782 1
	.cfi_startproc
	pushl	%ebp
	.cfi_def_cfa_offset 8
	.cfi_offset 5, -8
	movl	%esp, %ebp
	.cfi_def_cfa_register 5
	pushl	%edi
	subl	$116, %esp
	.cfi_offset 7, -12
	.loc 5 783 24
	leal	-88(%ebp), %edx
	movl	$0, %eax
	movl	$19, %ecx
	movl	%edx, %edi
	rep stosl
LBB45:
	.loc 5 784 30
	movl	8(%ebp), %eax
	movl	%eax, 4(%esp)
	leal	-88(%ebp), %eax
	movl	%eax, (%esp)
	call	__ZL22stbi__start_write_fileP19stbi__write_contextPKc
	.loc 5 784 43
	testl	%eax, %eax
	setne	%al
	.loc 5 784 4
	testb	%al, %al
	je	L206
LBB46:
	.loc 5 785 34
	movl	24(%ebp), %eax
	movl	%eax, 16(%esp)
	movl	20(%ebp), %eax
	movl	%eax, 12(%esp)
	movl	16(%ebp), %eax
	movl	%eax, 8(%esp)
	movl	12(%ebp), %eax
	movl	%eax, 4(%esp)
	leal	-88(%ebp), %eax
	movl	%eax, (%esp)
	call	__ZL19stbi_write_hdr_coreP19stbi__write_contextiiiPf
	movl	%eax, -12(%ebp)
	.loc 5 786 27
	leal	-88(%ebp), %eax
	movl	%eax, (%esp)
	call	__ZL20stbi__end_write_fileP19stbi__write_context
	.loc 5 787 14
	movl	-12(%ebp), %eax
	jmp	L208
L206:
LBE46:
	.loc 5 789 14
	movl	$0, %eax
L208:
LBE45:
	.loc 5 790 1 discriminator 1
	addl	$116, %esp
	popl	%edi
	.cfi_restore 7
	popl	%ebp
	.cfi_restore 5
	.cfi_def_cfa 4, 4
	ret
	.cfi_endproc
LFE1762:
	.section .rdata,"dr"
LC14:
	.ascii "p\0"
	.text
	.def	__ZL14stbiw__sbgrowfPPvii;	.scl	3;	.type	32;	.endef
__ZL14stbiw__sbgrowfPPvii:
LFB1763:
	.loc 5 814 1
	.cfi_startproc
	pushl	%ebp
	.cfi_def_cfa_offset 8
	.cfi_offset 5, -8
	movl	%esp, %ebp
	.cfi_def_cfa_register 5
	subl	$40, %esp
	.loc 5 815 12
	movl	8(%ebp), %eax
	movl	(%eax), %eax
	.loc 5 815 17
	testl	%eax, %eax
	je	L210
	.loc 5 815 21 discriminator 1
	movl	8(%ebp), %eax
	movl	(%eax), %eax
	subl	$8, %eax
	movl	(%eax), %eax
	.loc 5 815 20 discriminator 1
	leal	(%eax,%eax), %edx
	.loc 5 815 17 discriminator 1
	movl	12(%ebp), %eax
	addl	%edx, %eax
	jmp	L211
L210:
	.loc 5 815 17 is_stmt 0 discriminator 2
	movl	12(%ebp), %eax
	addl	$1, %eax
L211:
	.loc 5 815 8 is_stmt 1 discriminator 4
	movl	%eax, -12(%ebp)
	.loc 5 816 14 discriminator 4
	movl	16(%ebp), %eax
	imull	-12(%ebp), %eax
	leal	8(%eax), %edx
	movl	8(%ebp), %eax
	movl	(%eax), %eax
	testl	%eax, %eax
	je	L212
	.loc 5 816 14 is_stmt 0 discriminator 1
	movl	8(%ebp), %eax
	movl	(%eax), %eax
	subl	$8, %eax
	jmp	L213
L212:
	.loc 5 816 14 discriminator 2
	movl	$0, %eax
L213:
	.loc 5 816 14 discriminator 4
	movl	%edx, 4(%esp)
	movl	%eax, (%esp)
	call	_realloc
	movl	%eax, -16(%ebp)
	.loc 5 817 4 is_stmt 1 discriminator 4
	movl	-16(%ebp), %eax
	testl	%eax, %eax
	jne	L216
	.loc 5 817 4 is_stmt 0 discriminator 2
	movl	$817, 8(%esp)
	movl	$LC4, 4(%esp)
	movl	$LC14, (%esp)
	call	__assert
L216:
	.loc 5 818 9 is_stmt 1
	movl	-16(%ebp), %eax
	.loc 5 818 4
	testl	%eax, %eax
	je	L217
	.loc 5 819 12
	movl	8(%ebp), %eax
	movl	(%eax), %eax
	.loc 5 819 7
	testl	%eax, %eax
	jne	L218
	.loc 5 819 19 discriminator 1
	movl	-16(%ebp), %eax
	.loc 5 819 31 discriminator 1
	addl	$4, %eax
	.loc 5 819 33 discriminator 1
	movl	$0, (%eax)
L218:
	.loc 5 820 14
	movl	-16(%ebp), %eax
	leal	8(%eax), %edx
	.loc 5 820 12
	movl	8(%ebp), %eax
	movl	%edx, (%eax)
	.loc 5 821 7
	movl	8(%ebp), %eax
	movl	(%eax), %eax
	leal	-8(%eax), %edx
	.loc 5 821 24
	movl	-12(%ebp), %eax
	movl	%eax, (%edx)
L217:
	.loc 5 823 12
	movl	8(%ebp), %eax
	movl	(%eax), %eax
	.loc 5 824 1
	leave
	.cfi_restore 5
	.cfi_def_cfa 4, 4
	ret
	.cfi_endproc
LFE1763:
	.def	__ZL18stbiw__zlib_flushfPhPjPi;	.scl	3;	.type	32;	.endef
__ZL18stbiw__zlib_flushfPhPjPi:
LFB1764:
	.loc 5 827 1
	.cfi_startproc
	pushl	%ebp
	.cfi_def_cfa_offset 8
	.cfi_offset 5, -8
	movl	%esp, %ebp
	.cfi_def_cfa_register 5
	pushl	%esi
	pushl	%ebx
	subl	$16, %esp
	.cfi_offset 6, -12
	.cfi_offset 3, -16
L224:
	.loc 5 828 11
	movl	16(%ebp), %eax
	movl	(%eax), %eax
	.loc 5 828 21
	cmpl	$7, %eax
	jle	L221
	.loc 5 829 7
	movl	8(%ebp), %eax
	testl	%eax, %eax
	je	L222
	.loc 5 829 7 is_stmt 0 discriminator 2
	movl	8(%ebp), %eax
	subl	$4, %eax
	movl	(%eax), %eax
	leal	1(%eax), %edx
	movl	8(%ebp), %eax
	subl	$8, %eax
	movl	(%eax), %eax
	cmpl	%eax, %edx
	jl	L223
L222:
	.loc 5 829 7 discriminator 3
	movl	$1, 8(%esp)
	movl	$1, 4(%esp)
	leal	8(%ebp), %eax
	movl	%eax, (%esp)
	call	__ZL14stbiw__sbgrowfPPvii
L223:
	.loc 5 829 7 discriminator 5
	movl	12(%ebp), %eax
	movl	(%eax), %esi
	movl	8(%ebp), %ebx
	movl	8(%ebp), %eax
	leal	-4(%eax), %edx
	movl	(%edx), %eax
	leal	1(%eax), %ecx
	movl	%ecx, (%edx)
	addl	%ebx, %eax
	movl	%esi, %edx
	movb	%dl, (%eax)
	.loc 5 830 18 is_stmt 1 discriminator 5
	movl	12(%ebp), %eax
	movl	(%eax), %eax
	shrl	$8, %eax
	movl	%eax, %edx
	movl	12(%ebp), %eax
	movl	%edx, (%eax)
	.loc 5 831 17 discriminator 5
	movl	16(%ebp), %eax
	movl	(%eax), %eax
	leal	-8(%eax), %edx
	movl	16(%ebp), %eax
	movl	%edx, (%eax)
	.loc 5 828 4 discriminator 5
	jmp	L224
L221:
	.loc 5 833 11
	movl	8(%ebp), %eax
	.loc 5 834 1
	addl	$16, %esp
	popl	%ebx
	.cfi_restore 3
	popl	%esi
	.cfi_restore 6
	popl	%ebp
	.cfi_restore 5
	.cfi_def_cfa 4, 4
	ret
	.cfi_endproc
LFE1764:
	.def	__ZL18stbiw__zlib_bitrevii;	.scl	3;	.type	32;	.endef
__ZL18stbiw__zlib_bitrevii:
LFB1765:
	.loc 5 837 1
	.cfi_startproc
	pushl	%ebp
	.cfi_def_cfa_offset 8
	.cfi_offset 5, -8
	movl	%esp, %ebp
	.cfi_def_cfa_register 5
	subl	$16, %esp
	.loc 5 838 8
	movl	$0, -4(%ebp)
L228:
	.loc 5 839 19
	movl	12(%ebp), %eax
	leal	-1(%eax), %edx
	movl	%edx, 12(%ebp)
	testl	%eax, %eax
	setne	%al
	testb	%al, %al
	je	L227
	.loc 5 840 18
	movl	-4(%ebp), %eax
	leal	(%eax,%eax), %edx
	.loc 5 840 32
	movl	8(%ebp), %eax
	andl	$1, %eax
	.loc 5 840 11
	orl	%edx, %eax
	movl	%eax, -4(%ebp)
	.loc 5 841 12
	sarl	8(%ebp)
	.loc 5 839 4
	jmp	L228
L227:
	.loc 5 843 11
	movl	-4(%ebp), %eax
	.loc 5 844 1
	leave
	.cfi_restore 5
	.cfi_def_cfa 4, 4
	ret
	.cfi_endproc
LFE1765:
	.def	__ZL18stbiw__zlib_countmPhS_i;	.scl	3;	.type	32;	.endef
__ZL18stbiw__zlib_countmPhS_i:
LFB1766:
	.loc 5 847 1
	.cfi_startproc
	pushl	%ebp
	.cfi_def_cfa_offset 8
	.cfi_offset 5, -8
	movl	%esp, %ebp
	.cfi_def_cfa_register 5
	subl	$16, %esp
	.loc 5 849 10
	movl	$0, -4(%ebp)
L233:
	.loc 5 849 24 discriminator 1
	movl	-4(%ebp), %eax
	cmpl	16(%ebp), %eax
	jge	L231
	.loc 5 849 24 is_stmt 0 discriminator 2
	cmpl	$257, -4(%ebp)
	jg	L231
	.loc 5 850 14 is_stmt 1
	movl	-4(%ebp), %edx
	movl	8(%ebp), %eax
	addl	%edx, %eax
	movzbl	(%eax), %edx
	.loc 5 850 22
	movl	-4(%ebp), %ecx
	movl	12(%ebp), %eax
	addl	%ecx, %eax
	movzbl	(%eax), %eax
	.loc 5 850 7
	cmpb	%al, %dl
	jne	L235
	.loc 5 849 4 discriminator 3
	addl	$1, -4(%ebp)
	jmp	L233
L235:
	.loc 5 850 25
	nop
L231:
	.loc 5 851 11
	movl	-4(%ebp), %eax
	.loc 5 852 1
	leave
	.cfi_restore 5
	.cfi_def_cfa 4, 4
	ret
	.cfi_endproc
LFE1766:
	.def	__ZL12stbiw__zhashPh;	.scl	3;	.type	32;	.endef
__ZL12stbiw__zhashPh:
LFB1767:
	.loc 5 855 1
	.cfi_startproc
	pushl	%ebp
	.cfi_def_cfa_offset 8
	.cfi_offset 5, -8
	movl	%esp, %ebp
	.cfi_def_cfa_register 5
	subl	$16, %esp
	.loc 5 856 30
	movl	8(%ebp), %eax
	movzbl	(%eax), %eax
	movzbl	%al, %eax
	.loc 5 856 41
	movl	8(%ebp), %edx
	addl	$1, %edx
	movzbl	(%edx), %edx
	movzbl	%dl, %edx
	.loc 5 856 43
	sall	$8, %edx
	.loc 5 856 32
	addl	%eax, %edx
	.loc 5 856 58
	movl	8(%ebp), %eax
	addl	$2, %eax
	movzbl	(%eax), %eax
	movzbl	%al, %eax
	.loc 5 856 60
	sall	$16, %eax
	.loc 5 856 49
	addl	%edx, %eax
	.loc 5 856 17
	movl	%eax, -4(%ebp)
	.loc 5 857 17
	movl	-4(%ebp), %eax
	sall	$3, %eax
	.loc 5 857 9
	xorl	%eax, -4(%ebp)
	.loc 5 858 17
	movl	-4(%ebp), %eax
	shrl	$5, %eax
	.loc 5 858 9
	addl	%eax, -4(%ebp)
	.loc 5 859 17
	movl	-4(%ebp), %eax
	sall	$4, %eax
	.loc 5 859 9
	xorl	%eax, -4(%ebp)
	.loc 5 860 17
	movl	-4(%ebp), %eax
	shrl	$17, %eax
	.loc 5 860 9
	addl	%eax, -4(%ebp)
	.loc 5 861 17
	movl	-4(%ebp), %eax
	sall	$25, %eax
	.loc 5 861 9
	xorl	%eax, -4(%ebp)
	.loc 5 862 17
	movl	-4(%ebp), %eax
	shrl	$6, %eax
	.loc 5 862 9
	addl	%eax, -4(%ebp)
	.loc 5 863 11
	movl	-4(%ebp), %eax
	.loc 5 864 1
	leave
	.cfi_restore 5
	.cfi_def_cfa 4, 4
	ret
	.cfi_endproc
LFE1767:
	.data
	.align 32
__ZZ18stbi_zlib_compressE7lengthc:
	.word	3
	.word	4
	.word	5
	.word	6
	.word	7
	.word	8
	.word	9
	.word	10
	.word	11
	.word	13
	.word	15
	.word	17
	.word	19
	.word	23
	.word	27
	.word	31
	.word	35
	.word	43
	.word	51
	.word	59
	.word	67
	.word	83
	.word	99
	.word	115
	.word	131
	.word	163
	.word	195
	.word	227
	.word	258
	.word	259
	.align 4
__ZZ18stbi_zlib_compressE8lengtheb:
	.byte	0
	.byte	0
	.byte	0
	.byte	0
	.byte	0
	.byte	0
	.byte	0
	.byte	0
	.byte	1
	.byte	1
	.byte	1
	.byte	1
	.byte	2
	.byte	2
	.byte	2
	.byte	2
	.byte	3
	.byte	3
	.byte	3
	.byte	3
	.byte	4
	.byte	4
	.byte	4
	.byte	4
	.byte	5
	.byte	5
	.byte	5
	.byte	5
	.byte	0
	.align 32
__ZZ18stbi_zlib_compressE5distc:
	.word	1
	.word	2
	.word	3
	.word	4
	.word	5
	.word	7
	.word	9
	.word	13
	.word	17
	.word	25
	.word	33
	.word	49
	.word	65
	.word	97
	.word	129
	.word	193
	.word	257
	.word	385
	.word	513
	.word	769
	.word	1025
	.word	1537
	.word	2049
	.word	3073
	.word	4097
	.word	6145
	.word	8193
	.word	12289
	.word	16385
	.word	24577
	.word	-32768
	.align 4
__ZZ18stbi_zlib_compressE6disteb:
	.byte	0
	.byte	0
	.byte	0
	.byte	0
	.byte	1
	.byte	1
	.byte	2
	.byte	2
	.byte	3
	.byte	3
	.byte	4
	.byte	4
	.byte	5
	.byte	5
	.byte	6
	.byte	6
	.byte	7
	.byte	7
	.byte	8
	.byte	8
	.byte	9
	.byte	9
	.byte	10
	.byte	10
	.byte	11
	.byte	11
	.byte	12
	.byte	12
	.byte	13
	.byte	13
	.section .rdata,"dr"
LC15:
	.ascii "d <= 32767 && best <= 258\0"
	.text
	.globl	_stbi_zlib_compress
	.def	_stbi_zlib_compress;	.scl	2;	.type	32;	.endef
_stbi_zlib_compress:
LFB1768:
	.loc 5 883 1
	.cfi_startproc
	pushl	%ebp
	.cfi_def_cfa_offset 8
	.cfi_offset 5, -8
	movl	%esp, %ebp
	.cfi_def_cfa_register 5
	pushl	%esi
	pushl	%ebx
	subl	$96, %esp
	.cfi_offset 6, -12
	.cfi_offset 3, -16
	.loc 5 892 17
	movl	$0, -56(%ebp)
	.loc 5 893 13
	movl	$0, -60(%ebp)
	.loc 5 894 19
	movl	$0, -64(%ebp)
	.loc 5 895 53
	movl	$65536, (%esp)
	call	_malloc
	movl	%eax, -32(%ebp)
	.loc 5 896 4
	cmpl	$0, -32(%ebp)
	jne	L239
	.loc 5 897 14
	movl	$0, %eax
	jmp	L304
L239:
	.loc 5 898 4
	cmpl	$4, 20(%ebp)
	jg	L241
	.loc 5 898 29 discriminator 1
	movl	$5, 20(%ebp)
L241:
	.loc 5 900 4
	movl	-64(%ebp), %eax
	testl	%eax, %eax
	je	L242
	.loc 5 900 4 is_stmt 0 discriminator 2
	movl	-64(%ebp), %eax
	subl	$4, %eax
	movl	(%eax), %eax
	leal	1(%eax), %edx
	movl	-64(%ebp), %eax
	subl	$8, %eax
	movl	(%eax), %eax
	cmpl	%eax, %edx
	jl	L243
L242:
	.loc 5 900 4 discriminator 3
	movl	$1, 8(%esp)
	movl	$1, 4(%esp)
	leal	-64(%ebp), %eax
	movl	%eax, (%esp)
	call	__ZL14stbiw__sbgrowfPPvii
L243:
	.loc 5 900 4 discriminator 5
	movl	-64(%ebp), %ebx
	movl	-64(%ebp), %eax
	leal	-4(%eax), %edx
	movl	(%edx), %eax
	leal	1(%eax), %ecx
	movl	%ecx, (%edx)
	addl	%ebx, %eax
	movb	$120, (%eax)
	.loc 5 901 4 is_stmt 1 discriminator 5
	movl	-64(%ebp), %eax
	testl	%eax, %eax
	je	L244
	.loc 5 901 4 is_stmt 0 discriminator 2
	movl	-64(%ebp), %eax
	subl	$4, %eax
	movl	(%eax), %eax
	leal	1(%eax), %edx
	movl	-64(%ebp), %eax
	subl	$8, %eax
	movl	(%eax), %eax
	cmpl	%eax, %edx
	jl	L245
L244:
	.loc 5 901 4 discriminator 3
	movl	$1, 8(%esp)
	movl	$1, 4(%esp)
	leal	-64(%ebp), %eax
	movl	%eax, (%esp)
	call	__ZL14stbiw__sbgrowfPPvii
L245:
	.loc 5 901 4 discriminator 5
	movl	-64(%ebp), %ebx
	movl	-64(%ebp), %eax
	leal	-4(%eax), %edx
	movl	(%edx), %eax
	leal	1(%eax), %ecx
	movl	%ecx, (%edx)
	addl	%ebx, %eax
	movb	$94, (%eax)
	.loc 5 902 4 is_stmt 1 discriminator 5
	movl	-60(%ebp), %eax
	movl	$1, %edx
	movl	%eax, %ecx
	sall	%cl, %edx
	movl	%edx, %eax
	movl	%eax, %edx
	movl	-56(%ebp), %eax
	orl	%edx, %eax
	movl	%eax, -56(%ebp)
	movl	-60(%ebp), %eax
	addl	$1, %eax
	movl	%eax, -60(%ebp)
	movl	-64(%ebp), %eax
	leal	-60(%ebp), %edx
	movl	%edx, 8(%esp)
	leal	-56(%ebp), %edx
	movl	%edx, 4(%esp)
	movl	%eax, (%esp)
	call	__ZL18stbiw__zlib_flushfPhPjPi
	movl	%eax, -64(%ebp)
	.loc 5 903 4 discriminator 5
	movl	-60(%ebp), %eax
	movl	$1, %edx
	movl	%eax, %ecx
	sall	%cl, %edx
	movl	%edx, %eax
	movl	%eax, %edx
	movl	-56(%ebp), %eax
	orl	%edx, %eax
	movl	%eax, -56(%ebp)
	movl	-60(%ebp), %eax
	addl	$2, %eax
	movl	%eax, -60(%ebp)
	movl	-64(%ebp), %eax
	leal	-60(%ebp), %edx
	movl	%edx, 8(%esp)
	leal	-56(%ebp), %edx
	movl	%edx, 4(%esp)
	movl	%eax, (%esp)
	call	__ZL18stbiw__zlib_flushfPhPjPi
	movl	%eax, -64(%ebp)
	.loc 5 905 10 discriminator 5
	movl	$0, -12(%ebp)
L247:
	.loc 5 905 16 discriminator 3
	cmpl	$16383, -12(%ebp)
	jg	L246
	.loc 5 906 19 discriminator 2
	movl	-12(%ebp), %eax
	leal	0(,%eax,4), %edx
	movl	-32(%ebp), %eax
	addl	%edx, %eax
	.loc 5 906 21 discriminator 2
	movl	$0, (%eax)
	.loc 5 905 4 discriminator 2
	addl	$1, -12(%ebp)
	jmp	L247
L246:
	.loc 5 908 5
	movl	$0, -12(%ebp)
L283:
	.loc 5 909 23
	movl	12(%ebp), %eax
	subl	$3, %eax
	.loc 5 909 13
	cmpl	%eax, -12(%ebp)
	jge	L248
LBB47:
	.loc 5 911 27
	movl	-12(%ebp), %edx
	movl	8(%ebp), %eax
	addl	%edx, %eax
	movl	%eax, (%esp)
	call	__ZL12stbiw__zhashPh
	.loc 5 911 51
	andl	$16383, %eax
	movl	%eax, -36(%ebp)
	.loc 5 911 54
	movl	$3, -20(%ebp)
	.loc 5 912 22
	movl	$0, -24(%ebp)
	.loc 5 913 43
	movl	-36(%ebp), %eax
	leal	0(,%eax,4), %edx
	movl	-32(%ebp), %eax
	addl	%edx, %eax
	movl	(%eax), %eax
	.loc 5 913 23
	movl	%eax, -68(%ebp)
	.loc 5 914 15
	movl	-68(%ebp), %eax
	testl	%eax, %eax
	je	L249
	.loc 5 914 15 is_stmt 0 discriminator 1
	movl	-68(%ebp), %eax
	movl	-4(%eax), %eax
	jmp	L250
L249:
	.loc 5 914 15 discriminator 2
	movl	$0, %eax
L250:
	.loc 5 914 11 is_stmt 1 discriminator 4
	movl	%eax, -40(%ebp)
LBB48:
	.loc 5 915 13 discriminator 4
	movl	$0, -16(%ebp)
L254:
	.loc 5 915 19 discriminator 1
	movl	-16(%ebp), %eax
	cmpl	-40(%ebp), %eax
	jge	L251
LBB49:
LBB50:
	.loc 5 916 28
	movl	-12(%ebp), %eax
	leal	-32767(%eax), %ecx
	.loc 5 916 21
	movl	-68(%ebp), %eax
	movl	-16(%ebp), %edx
	sall	$2, %edx
	addl	%edx, %eax
	movl	(%eax), %eax
	.loc 5 916 22
	subl	8(%ebp), %eax
	.loc 5 916 10
	cmpl	%eax, %ecx
	jg	L252
LBB51:
	.loc 5 917 39
	movl	12(%ebp), %eax
	subl	-12(%ebp), %eax
	movl	%eax, %edx
	movl	-12(%ebp), %ecx
	movl	8(%ebp), %eax
	addl	%eax, %ecx
	.loc 5 917 47
	movl	-68(%ebp), %eax
	movl	-16(%ebp), %ebx
	sall	$2, %ebx
	addl	%ebx, %eax
	.loc 5 917 39
	movl	(%eax), %eax
	movl	%edx, 8(%esp)
	movl	%ecx, 4(%esp)
	movl	%eax, (%esp)
	call	__ZL18stbiw__zlib_countmPhS_i
	.loc 5 917 68
	movl	%eax, -44(%ebp)
	.loc 5 918 13
	movl	-44(%ebp), %eax
	cmpl	-20(%ebp), %eax
	jl	L252
	.loc 5 918 34 discriminator 1
	movl	-44(%ebp), %eax
	movl	%eax, -20(%ebp)
	.loc 5 918 53 discriminator 1
	movl	-68(%ebp), %eax
	movl	-16(%ebp), %edx
	sall	$2, %edx
	addl	%edx, %eax
	.loc 5 918 45 discriminator 1
	movl	(%eax), %eax
	movl	%eax, -24(%ebp)
L252:
LBE51:
LBE50:
LBE49:
	.loc 5 915 7 discriminator 2
	addl	$1, -16(%ebp)
	jmp	L254
L251:
LBE48:
	.loc 5 922 23
	movl	-36(%ebp), %eax
	leal	0(,%eax,4), %edx
	movl	-32(%ebp), %eax
	addl	%edx, %eax
	movl	(%eax), %eax
	.loc 5 922 7
	testl	%eax, %eax
	je	L255
	.loc 5 922 28 discriminator 1
	movl	-36(%ebp), %eax
	leal	0(,%eax,4), %edx
	movl	-32(%ebp), %eax
	addl	%edx, %eax
	movl	(%eax), %eax
	subl	$4, %eax
	movl	(%eax), %eax
	.loc 5 922 58 discriminator 1
	movl	20(%ebp), %edx
	addl	%edx, %edx
	.loc 5 922 25 discriminator 1
	cmpl	%edx, %eax
	jne	L255
	.loc 5 923 10
	movl	20(%ebp), %eax
	leal	0(,%eax,4), %ecx
	movl	-36(%ebp), %eax
	leal	0(,%eax,4), %edx
	movl	-32(%ebp), %eax
	addl	%edx, %eax
	movl	(%eax), %eax
	movl	20(%ebp), %edx
	sall	$2, %edx
	addl	%eax, %edx
	movl	-36(%ebp), %eax
	leal	0(,%eax,4), %ebx
	movl	-32(%ebp), %eax
	addl	%ebx, %eax
	movl	(%eax), %eax
	movl	%ecx, 8(%esp)
	movl	%edx, 4(%esp)
	movl	%eax, (%esp)
	call	_memmove
	.loc 5 924 10
	movl	-36(%ebp), %eax
	leal	0(,%eax,4), %edx
	movl	-32(%ebp), %eax
	addl	%edx, %eax
	movl	(%eax), %eax
	leal	-4(%eax), %edx
	.loc 5 924 36
	movl	20(%ebp), %eax
	movl	%eax, (%edx)
L255:
	.loc 5 926 7
	movl	-36(%ebp), %eax
	leal	0(,%eax,4), %edx
	movl	-32(%ebp), %eax
	addl	%edx, %eax
	movl	(%eax), %eax
	testl	%eax, %eax
	je	L256
	.loc 5 926 7 is_stmt 0 discriminator 2
	movl	-36(%ebp), %eax
	leal	0(,%eax,4), %edx
	movl	-32(%ebp), %eax
	addl	%edx, %eax
	movl	(%eax), %eax
	subl	$4, %eax
	movl	(%eax), %eax
	leal	1(%eax), %edx
	movl	-36(%ebp), %eax
	leal	0(,%eax,4), %ecx
	movl	-32(%ebp), %eax
	addl	%ecx, %eax
	movl	(%eax), %eax
	subl	$8, %eax
	movl	(%eax), %eax
	cmpl	%eax, %edx
	jl	L257
L256:
	.loc 5 926 7 discriminator 3
	movl	-36(%ebp), %eax
	leal	0(,%eax,4), %edx
	movl	-32(%ebp), %eax
	addl	%edx, %eax
	movl	$4, 8(%esp)
	movl	$1, 4(%esp)
	movl	%eax, (%esp)
	call	__ZL14stbiw__sbgrowfPPvii
L257:
	.loc 5 926 7 discriminator 5
	movl	-12(%ebp), %ebx
	movl	-36(%ebp), %eax
	leal	0(,%eax,4), %edx
	movl	-32(%ebp), %eax
	addl	%edx, %eax
	movl	(%eax), %esi
	movl	-36(%ebp), %eax
	leal	0(,%eax,4), %edx
	movl	-32(%ebp), %eax
	addl	%edx, %eax
	movl	(%eax), %eax
	leal	-4(%eax), %edx
	movl	(%edx), %eax
	leal	1(%eax), %ecx
	movl	%ecx, (%edx)
	sall	$2, %eax
	addl	%esi, %eax
	movl	8(%ebp), %edx
	addl	%ebx, %edx
	movl	%edx, (%eax)
LBB52:
	.loc 5 928 7 is_stmt 1 discriminator 5
	cmpl	$0, -24(%ebp)
	je	L258
LBB53:
	.loc 5 930 33
	movl	-12(%ebp), %eax
	leal	1(%eax), %edx
	.loc 5 930 26
	movl	8(%ebp), %eax
	addl	%edx, %eax
	movl	%eax, (%esp)
	call	__ZL12stbiw__zhashPh
	.loc 5 930 12
	andl	$16383, %eax
	movl	%eax, -36(%ebp)
	.loc 5 931 30
	movl	-36(%ebp), %eax
	leal	0(,%eax,4), %edx
	movl	-32(%ebp), %eax
	addl	%edx, %eax
	movl	(%eax), %eax
	.loc 5 931 16
	movl	%eax, -68(%ebp)
	.loc 5 932 14
	movl	-68(%ebp), %eax
	testl	%eax, %eax
	je	L259
	.loc 5 932 14 is_stmt 0 discriminator 1
	movl	-68(%ebp), %eax
	movl	-4(%eax), %eax
	jmp	L260
L259:
	.loc 5 932 14 discriminator 2
	movl	$0, %eax
L260:
	.loc 5 932 12 is_stmt 1 discriminator 4
	movl	%eax, -40(%ebp)
LBB54:
	.loc 5 933 16 discriminator 4
	movl	$0, -16(%ebp)
L264:
	.loc 5 933 22 discriminator 1
	movl	-16(%ebp), %eax
	cmpl	-40(%ebp), %eax
	jge	L258
LBB55:
LBB56:
	.loc 5 934 31
	movl	-12(%ebp), %eax
	leal	-32766(%eax), %ecx
	.loc 5 934 24
	movl	-68(%ebp), %eax
	movl	-16(%ebp), %edx
	sall	$2, %edx
	addl	%edx, %eax
	movl	(%eax), %eax
	.loc 5 934 25
	subl	8(%ebp), %eax
	.loc 5 934 13
	cmpl	%eax, %ecx
	jg	L262
LBB57:
	.loc 5 935 71
	movl	12(%ebp), %eax
	subl	-12(%ebp), %eax
	.loc 5 935 42
	leal	-1(%eax), %ecx
	.loc 5 935 59
	movl	-12(%ebp), %eax
	leal	1(%eax), %edx
	.loc 5 935 42
	movl	8(%ebp), %eax
	addl	%eax, %edx
	.loc 5 935 50
	movl	-68(%ebp), %eax
	movl	-16(%ebp), %ebx
	sall	$2, %ebx
	addl	%ebx, %eax
	.loc 5 935 42
	movl	(%eax), %eax
	movl	%ecx, 8(%esp)
	movl	%edx, 4(%esp)
	movl	%eax, (%esp)
	call	__ZL18stbiw__zlib_countmPhS_i
	.loc 5 935 75
	movl	%eax, -48(%ebp)
	.loc 5 936 16
	movl	-48(%ebp), %eax
	cmpl	-20(%ebp), %eax
	jle	L262
	.loc 5 937 27
	movl	$0, -24(%ebp)
	.loc 5 938 19
	jmp	L258
L262:
LBE57:
LBE56:
LBE55:
	.loc 5 933 10 discriminator 2
	addl	$1, -16(%ebp)
	jmp	L264
L258:
LBE54:
LBE53:
LBE52:
LBB58:
	.loc 5 944 7
	cmpl	$0, -24(%ebp)
	je	L265
LBB59:
	.loc 5 945 29
	movl	-12(%ebp), %edx
	movl	8(%ebp), %eax
	addl	%edx, %eax
	.loc 5 945 14
	subl	-24(%ebp), %eax
	movl	%eax, -52(%ebp)
	.loc 5 946 10
	cmpl	$32767, -52(%ebp)
	jg	L266
	.loc 5 946 10 is_stmt 0 discriminator 1
	cmpl	$258, -20(%ebp)
	jle	L305
L266:
	.loc 5 946 10 discriminator 4
	movl	$946, 8(%esp)
	movl	$LC4, 4(%esp)
	movl	$LC15, (%esp)
	call	__assert
	jmp	L269
L305:
	.loc 5 946 10
	nop
L269:
	.loc 5 947 16 is_stmt 1
	movl	$0, -16(%ebp)
L271:
	.loc 5 947 36 discriminator 3
	movl	-16(%ebp), %eax
	addl	$1, %eax
	.loc 5 947 38 discriminator 3
	movzwl	__ZZ18stbi_zlib_compressE7lengthc(%eax,%eax), %eax
	movzwl	%ax, %eax
	.loc 5 947 25 discriminator 3
	cmpl	%eax, -20(%ebp)
	jl	L270
	.loc 5 947 10 discriminator 2
	addl	$1, -16(%ebp)
	jmp	L271
L270:
	.loc 5 948 10
	cmpl	$-113, -16(%ebp)
	jge	L272
	.loc 5 948 10 is_stmt 0 discriminator 1
	movl	-16(%ebp), %eax
	addl	$305, %eax
	movl	$8, 4(%esp)
	movl	%eax, (%esp)
	call	__ZL18stbiw__zlib_bitrevii
	movl	%eax, %edx
	movl	-60(%ebp), %eax
	movl	%eax, %ecx
	sall	%cl, %edx
	movl	-56(%ebp), %eax
	orl	%edx, %eax
	movl	%eax, -56(%ebp)
	movl	-60(%ebp), %eax
	addl	$8, %eax
	movl	%eax, -60(%ebp)
	movl	-64(%ebp), %eax
	leal	-60(%ebp), %edx
	movl	%edx, 8(%esp)
	leal	-56(%ebp), %edx
	movl	%edx, 4(%esp)
	movl	%eax, (%esp)
	call	__ZL18stbiw__zlib_flushfPhPjPi
	movl	%eax, -64(%ebp)
	jmp	L273
L272:
	.loc 5 948 10 discriminator 2
	cmpl	$-1, -16(%ebp)
	jge	L274
	.loc 5 948 10 discriminator 4
	movl	-16(%ebp), %eax
	addl	$513, %eax
	movl	$9, 4(%esp)
	movl	%eax, (%esp)
	call	__ZL18stbiw__zlib_bitrevii
	movl	%eax, %edx
	movl	-60(%ebp), %eax
	movl	%eax, %ecx
	sall	%cl, %edx
	movl	-56(%ebp), %eax
	orl	%edx, %eax
	movl	%eax, -56(%ebp)
	movl	-60(%ebp), %eax
	addl	$9, %eax
	movl	%eax, -60(%ebp)
	movl	-64(%ebp), %eax
	leal	-60(%ebp), %edx
	movl	%edx, 8(%esp)
	leal	-56(%ebp), %edx
	movl	%edx, 4(%esp)
	movl	%eax, (%esp)
	call	__ZL18stbiw__zlib_flushfPhPjPi
	movl	%eax, -64(%ebp)
	jmp	L273
L274:
	.loc 5 948 10 discriminator 5
	cmpl	$22, -16(%ebp)
	jg	L275
	.loc 5 948 10 discriminator 7
	movl	-16(%ebp), %eax
	addl	$1, %eax
	movl	$7, 4(%esp)
	movl	%eax, (%esp)
	call	__ZL18stbiw__zlib_bitrevii
	movl	%eax, %edx
	movl	-60(%ebp), %eax
	movl	%eax, %ecx
	sall	%cl, %edx
	movl	-56(%ebp), %eax
	orl	%edx, %eax
	movl	%eax, -56(%ebp)
	movl	-60(%ebp), %eax
	addl	$7, %eax
	movl	%eax, -60(%ebp)
	movl	-64(%ebp), %eax
	leal	-60(%ebp), %edx
	movl	%edx, 8(%esp)
	leal	-56(%ebp), %edx
	movl	%edx, 4(%esp)
	movl	%eax, (%esp)
	call	__ZL18stbiw__zlib_flushfPhPjPi
	movl	%eax, -64(%ebp)
	jmp	L273
L275:
	.loc 5 948 10 discriminator 8
	movl	-16(%ebp), %eax
	addl	$169, %eax
	movl	$8, 4(%esp)
	movl	%eax, (%esp)
	call	__ZL18stbiw__zlib_bitrevii
	movl	%eax, %edx
	movl	-60(%ebp), %eax
	movl	%eax, %ecx
	sall	%cl, %edx
	movl	-56(%ebp), %eax
	orl	%edx, %eax
	movl	%eax, -56(%ebp)
	movl	-60(%ebp), %eax
	addl	$8, %eax
	movl	%eax, -60(%ebp)
	movl	-64(%ebp), %eax
	leal	-60(%ebp), %edx
	movl	%edx, 8(%esp)
	leal	-56(%ebp), %edx
	movl	%edx, 4(%esp)
	movl	%eax, (%esp)
	call	__ZL18stbiw__zlib_flushfPhPjPi
	movl	%eax, -64(%ebp)
L273:
	.loc 5 949 24 is_stmt 1
	movl	-16(%ebp), %eax
	addl	$__ZZ18stbi_zlib_compressE8lengtheb, %eax
	movzbl	(%eax), %eax
	.loc 5 949 10
	testb	%al, %al
	je	L276
	.loc 5 949 27 discriminator 1
	movl	-16(%ebp), %eax
	movzwl	__ZZ18stbi_zlib_compressE7lengthc(%eax,%eax), %eax
	movzwl	%ax, %eax
	movl	-20(%ebp), %edx
	subl	%eax, %edx
	movl	-60(%ebp), %eax
	movl	%eax, %ecx
	sall	%cl, %edx
	movl	%edx, %eax
	movl	%eax, %edx
	movl	-56(%ebp), %eax
	orl	%edx, %eax
	movl	%eax, -56(%ebp)
	movl	-16(%ebp), %eax
	addl	$__ZZ18stbi_zlib_compressE8lengtheb, %eax
	movzbl	(%eax), %eax
	movzbl	%al, %edx
	movl	-60(%ebp), %eax
	addl	%edx, %eax
	movl	%eax, -60(%ebp)
	movl	-64(%ebp), %eax
	leal	-60(%ebp), %edx
	movl	%edx, 8(%esp)
	leal	-56(%ebp), %edx
	movl	%edx, 4(%esp)
	movl	%eax, (%esp)
	call	__ZL18stbiw__zlib_flushfPhPjPi
	movl	%eax, -64(%ebp)
L276:
	.loc 5 950 16
	movl	$0, -16(%ebp)
L278:
	.loc 5 950 31 discriminator 3
	movl	-16(%ebp), %eax
	addl	$1, %eax
	.loc 5 950 33 discriminator 3
	movzwl	__ZZ18stbi_zlib_compressE5distc(%eax,%eax), %eax
	movzwl	%ax, %eax
	.loc 5 950 22 discriminator 3
	cmpl	%eax, -52(%ebp)
	jl	L277
	.loc 5 950 10 discriminator 2
	addl	$1, -16(%ebp)
	jmp	L278
L277:
	.loc 5 951 10
	movl	$5, 4(%esp)
	movl	-16(%ebp), %eax
	movl	%eax, (%esp)
	call	__ZL18stbiw__zlib_bitrevii
	movl	%eax, %edx
	movl	-60(%ebp), %eax
	movl	%eax, %ecx
	sall	%cl, %edx
	movl	-56(%ebp), %eax
	orl	%edx, %eax
	movl	%eax, -56(%ebp)
	movl	-60(%ebp), %eax
	addl	$5, %eax
	movl	%eax, -60(%ebp)
	movl	-64(%ebp), %eax
	leal	-60(%ebp), %edx
	movl	%edx, 8(%esp)
	leal	-56(%ebp), %edx
	movl	%edx, 4(%esp)
	movl	%eax, (%esp)
	call	__ZL18stbiw__zlib_flushfPhPjPi
	movl	%eax, -64(%ebp)
	.loc 5 952 22
	movl	-16(%ebp), %eax
	addl	$__ZZ18stbi_zlib_compressE6disteb, %eax
	movzbl	(%eax), %eax
	.loc 5 952 10
	testb	%al, %al
	je	L279
	.loc 5 952 25 discriminator 1
	movl	-16(%ebp), %eax
	movzwl	__ZZ18stbi_zlib_compressE5distc(%eax,%eax), %eax
	movzwl	%ax, %eax
	movl	-52(%ebp), %edx
	subl	%eax, %edx
	movl	-60(%ebp), %eax
	movl	%eax, %ecx
	sall	%cl, %edx
	movl	%edx, %eax
	movl	%eax, %edx
	movl	-56(%ebp), %eax
	orl	%edx, %eax
	movl	%eax, -56(%ebp)
	movl	-16(%ebp), %eax
	addl	$__ZZ18stbi_zlib_compressE6disteb, %eax
	movzbl	(%eax), %eax
	movzbl	%al, %edx
	movl	-60(%ebp), %eax
	addl	%edx, %eax
	movl	%eax, -60(%ebp)
	movl	-64(%ebp), %eax
	leal	-60(%ebp), %edx
	movl	%edx, 8(%esp)
	leal	-56(%ebp), %edx
	movl	%edx, 4(%esp)
	movl	%eax, (%esp)
	call	__ZL18stbiw__zlib_flushfPhPjPi
	movl	%eax, -64(%ebp)
L279:
	.loc 5 953 12
	movl	-20(%ebp), %eax
	addl	%eax, -12(%ebp)
LBE59:
	jmp	L283
L265:
	.loc 5 955 10
	movl	-12(%ebp), %edx
	movl	8(%ebp), %eax
	addl	%edx, %eax
	movzbl	(%eax), %eax
	cmpb	$-113, %al
	ja	L281
	.loc 5 955 10 is_stmt 0 discriminator 1
	movl	-12(%ebp), %edx
	movl	8(%ebp), %eax
	addl	%edx, %eax
	movzbl	(%eax), %eax
	movzbl	%al, %eax
	addl	$48, %eax
	movl	$8, 4(%esp)
	movl	%eax, (%esp)
	call	__ZL18stbiw__zlib_bitrevii
	movl	%eax, %edx
	movl	-60(%ebp), %eax
	movl	%eax, %ecx
	sall	%cl, %edx
	movl	-56(%ebp), %eax
	orl	%edx, %eax
	movl	%eax, -56(%ebp)
	movl	-60(%ebp), %eax
	addl	$8, %eax
	movl	%eax, -60(%ebp)
	movl	-64(%ebp), %eax
	leal	-60(%ebp), %edx
	movl	%edx, 8(%esp)
	leal	-56(%ebp), %edx
	movl	%edx, 4(%esp)
	movl	%eax, (%esp)
	call	__ZL18stbiw__zlib_flushfPhPjPi
	movl	%eax, -64(%ebp)
	jmp	L282
L281:
	.loc 5 955 10 discriminator 2
	movl	-12(%ebp), %edx
	movl	8(%ebp), %eax
	addl	%edx, %eax
	movzbl	(%eax), %eax
	movzbl	%al, %eax
	addl	$256, %eax
	movl	$9, 4(%esp)
	movl	%eax, (%esp)
	call	__ZL18stbiw__zlib_bitrevii
	movl	%eax, %edx
	movl	-60(%ebp), %eax
	movl	%eax, %ecx
	sall	%cl, %edx
	movl	-56(%ebp), %eax
	orl	%edx, %eax
	movl	%eax, -56(%ebp)
	movl	-60(%ebp), %eax
	addl	$9, %eax
	movl	%eax, -60(%ebp)
	movl	-64(%ebp), %eax
	leal	-60(%ebp), %edx
	movl	%edx, 8(%esp)
	leal	-56(%ebp), %edx
	movl	%edx, 4(%esp)
	movl	%eax, (%esp)
	call	__ZL18stbiw__zlib_flushfPhPjPi
	movl	%eax, -64(%ebp)
L282:
	.loc 5 956 10 is_stmt 1
	addl	$1, -12(%ebp)
LBE58:
LBE47:
	.loc 5 909 4
	jmp	L283
L248:
	.loc 5 960 12 discriminator 1
	movl	-12(%ebp), %eax
	cmpl	12(%ebp), %eax
	jge	L284
	.loc 5 961 7
	movl	-12(%ebp), %edx
	movl	8(%ebp), %eax
	addl	%edx, %eax
	movzbl	(%eax), %eax
	cmpb	$-113, %al
	ja	L285
	.loc 5 961 7 is_stmt 0 discriminator 1
	movl	-12(%ebp), %edx
	movl	8(%ebp), %eax
	addl	%edx, %eax
	movzbl	(%eax), %eax
	movzbl	%al, %eax
	addl	$48, %eax
	movl	$8, 4(%esp)
	movl	%eax, (%esp)
	call	__ZL18stbiw__zlib_bitrevii
	movl	%eax, %edx
	movl	-60(%ebp), %eax
	movl	%eax, %ecx
	sall	%cl, %edx
	movl	-56(%ebp), %eax
	orl	%edx, %eax
	movl	%eax, -56(%ebp)
	movl	-60(%ebp), %eax
	addl	$8, %eax
	movl	%eax, -60(%ebp)
	movl	-64(%ebp), %eax
	leal	-60(%ebp), %edx
	movl	%edx, 8(%esp)
	leal	-56(%ebp), %edx
	movl	%edx, 4(%esp)
	movl	%eax, (%esp)
	call	__ZL18stbiw__zlib_flushfPhPjPi
	movl	%eax, -64(%ebp)
	jmp	L286
L285:
	.loc 5 961 7 discriminator 2
	movl	-12(%ebp), %edx
	movl	8(%ebp), %eax
	addl	%edx, %eax
	movzbl	(%eax), %eax
	movzbl	%al, %eax
	addl	$256, %eax
	movl	$9, 4(%esp)
	movl	%eax, (%esp)
	call	__ZL18stbiw__zlib_bitrevii
	movl	%eax, %edx
	movl	-60(%ebp), %eax
	movl	%eax, %ecx
	sall	%cl, %edx
	movl	-56(%ebp), %eax
	orl	%edx, %eax
	movl	%eax, -56(%ebp)
	movl	-60(%ebp), %eax
	addl	$9, %eax
	movl	%eax, -60(%ebp)
	movl	-64(%ebp), %eax
	leal	-60(%ebp), %edx
	movl	%edx, 8(%esp)
	leal	-56(%ebp), %edx
	movl	%edx, 4(%esp)
	movl	%eax, (%esp)
	call	__ZL18stbiw__zlib_flushfPhPjPi
	movl	%eax, -64(%ebp)
L286:
	.loc 5 960 4 is_stmt 1
	addl	$1, -12(%ebp)
	jmp	L248
L284:
	.loc 5 962 4
	movl	$7, 4(%esp)
	movl	$0, (%esp)
	call	__ZL18stbiw__zlib_bitrevii
	movl	%eax, %edx
	movl	-60(%ebp), %eax
	movl	%eax, %ecx
	sall	%cl, %edx
	movl	-56(%ebp), %eax
	orl	%edx, %eax
	movl	%eax, -56(%ebp)
	movl	-60(%ebp), %eax
	addl	$7, %eax
	movl	%eax, -60(%ebp)
	movl	-64(%ebp), %eax
	leal	-60(%ebp), %edx
	movl	%edx, 8(%esp)
	leal	-56(%ebp), %edx
	movl	%edx, 4(%esp)
	movl	%eax, (%esp)
	call	__ZL18stbiw__zlib_flushfPhPjPi
	movl	%eax, -64(%ebp)
L288:
	.loc 5 964 11
	movl	-60(%ebp), %eax
	testl	%eax, %eax
	je	L287
	.loc 5 965 7
	movl	-56(%ebp), %eax
	movl	%eax, -56(%ebp)
	movl	-60(%ebp), %eax
	addl	$1, %eax
	movl	%eax, -60(%ebp)
	movl	-64(%ebp), %eax
	leal	-60(%ebp), %edx
	movl	%edx, 8(%esp)
	leal	-56(%ebp), %edx
	movl	%edx, 4(%esp)
	movl	%eax, (%esp)
	call	__ZL18stbiw__zlib_flushfPhPjPi
	movl	%eax, -64(%ebp)
	.loc 5 964 4
	jmp	L288
L287:
	.loc 5 967 10
	movl	$0, -12(%ebp)
L291:
	.loc 5 967 16 discriminator 1
	cmpl	$16383, -12(%ebp)
	jg	L289
	.loc 5 968 14
	movl	-12(%ebp), %eax
	leal	0(,%eax,4), %edx
	movl	-32(%ebp), %eax
	addl	%edx, %eax
	movl	(%eax), %eax
	.loc 5 968 7
	testl	%eax, %eax
	je	L290
	.loc 5 968 14 discriminator 1
	movl	-12(%ebp), %eax
	leal	0(,%eax,4), %edx
	movl	-32(%ebp), %eax
	addl	%edx, %eax
	movl	(%eax), %eax
	subl	$8, %eax
	movl	%eax, (%esp)
	call	_free
L290:
	.loc 5 967 4 discriminator 2
	addl	$1, -12(%ebp)
	jmp	L291
L289:
	.loc 5 969 4
	movl	-32(%ebp), %eax
	movl	%eax, (%esp)
	call	_free
LBB60:
	.loc 5 973 20
	movl	$1, -72(%ebp)
	.loc 5 973 26
	movl	$0, -76(%ebp)
	.loc 5 974 11
	movl	12(%ebp), %ecx
	movl	$1584310703, %edx
	movl	%ecx, %eax
	imull	%edx
	sarl	$11, %edx
	movl	%ecx, %eax
	sarl	$31, %eax
	subl	%eax, %edx
	movl	%edx, %eax
	imull	$5552, %eax, %eax
	subl	%eax, %ecx
	movl	%ecx, %eax
	movl	%eax, -28(%ebp)
	.loc 5 975 8
	movl	$0, -16(%ebp)
L295:
	.loc 5 976 16
	movl	-16(%ebp), %eax
	cmpl	12(%ebp), %eax
	jge	L292
	.loc 5 977 16
	movl	$0, -12(%ebp)
L294:
	.loc 5 977 22 discriminator 3
	movl	-12(%ebp), %eax
	cmpl	-28(%ebp), %eax
	jge	L293
	.loc 5 977 53 discriminator 2
	movl	-16(%ebp), %edx
	movl	-12(%ebp), %eax
	addl	%edx, %eax
	movl	%eax, %edx
	.loc 5 977 55 discriminator 2
	movl	8(%ebp), %eax
	addl	%edx, %eax
	movzbl	(%eax), %eax
	movzbl	%al, %edx
	.loc 5 977 44 discriminator 2
	movl	-72(%ebp), %eax
	addl	%edx, %eax
	movl	%eax, -72(%ebp)
	.loc 5 977 61 discriminator 2
	movl	-76(%ebp), %edx
	movl	-72(%ebp), %eax
	addl	%edx, %eax
	movl	%eax, -76(%ebp)
	.loc 5 977 10 discriminator 2
	addl	$1, -12(%ebp)
	jmp	L294
L293:
	.loc 5 978 13
	movl	-72(%ebp), %ecx
	movl	$-2146992015, %edx
	movl	%ecx, %eax
	mull	%edx
	movl	%edx, %eax
	shrl	$15, %eax
	imull	$65521, %eax, %eax
	subl	%eax, %ecx
	movl	%ecx, %eax
	movl	%eax, -72(%ebp)
	.loc 5 978 26
	movl	-76(%ebp), %ecx
	movl	$-2146992015, %edx
	movl	%ecx, %eax
	mull	%edx
	movl	%edx, %eax
	shrl	$15, %eax
	imull	$65521, %eax, %eax
	subl	%eax, %ecx
	movl	%ecx, %eax
	movl	%eax, -76(%ebp)
	.loc 5 979 12
	movl	-28(%ebp), %eax
	addl	%eax, -16(%ebp)
	.loc 5 980 19
	movl	$5552, -28(%ebp)
	.loc 5 976 7
	jmp	L295
L292:
	.loc 5 982 7
	movl	-64(%ebp), %eax
	testl	%eax, %eax
	je	L296
	.loc 5 982 7 is_stmt 0 discriminator 2
	movl	-64(%ebp), %eax
	subl	$4, %eax
	movl	(%eax), %eax
	leal	1(%eax), %edx
	movl	-64(%ebp), %eax
	subl	$8, %eax
	movl	(%eax), %eax
	cmpl	%eax, %edx
	jl	L297
L296:
	.loc 5 982 7 discriminator 3
	movl	$1, 8(%esp)
	movl	$1, 4(%esp)
	leal	-64(%ebp), %eax
	movl	%eax, (%esp)
	call	__ZL14stbiw__sbgrowfPPvii
L297:
	.loc 5 982 7 discriminator 5
	movl	-76(%ebp), %eax
	shrl	$8, %eax
	movl	%eax, %esi
	movl	-64(%ebp), %ebx
	movl	-64(%ebp), %eax
	leal	-4(%eax), %edx
	movl	(%edx), %eax
	leal	1(%eax), %ecx
	movl	%ecx, (%edx)
	addl	%ebx, %eax
	movl	%esi, %edx
	movb	%dl, (%eax)
	.loc 5 983 7 is_stmt 1 discriminator 5
	movl	-64(%ebp), %eax
	testl	%eax, %eax
	je	L298
	.loc 5 983 7 is_stmt 0 discriminator 2
	movl	-64(%ebp), %eax
	subl	$4, %eax
	movl	(%eax), %eax
	leal	1(%eax), %edx
	movl	-64(%ebp), %eax
	subl	$8, %eax
	movl	(%eax), %eax
	cmpl	%eax, %edx
	jl	L299
L298:
	.loc 5 983 7 discriminator 3
	movl	$1, 8(%esp)
	movl	$1, 4(%esp)
	leal	-64(%ebp), %eax
	movl	%eax, (%esp)
	call	__ZL14stbiw__sbgrowfPPvii
L299:
	.loc 5 983 7 discriminator 5
	movl	-76(%ebp), %esi
	movl	-64(%ebp), %ebx
	movl	-64(%ebp), %eax
	leal	-4(%eax), %edx
	movl	(%edx), %eax
	leal	1(%eax), %ecx
	movl	%ecx, (%edx)
	addl	%ebx, %eax
	movl	%esi, %edx
	movb	%dl, (%eax)
	.loc 5 984 7 is_stmt 1 discriminator 5
	movl	-64(%ebp), %eax
	testl	%eax, %eax
	je	L300
	.loc 5 984 7 is_stmt 0 discriminator 2
	movl	-64(%ebp), %eax
	subl	$4, %eax
	movl	(%eax), %eax
	leal	1(%eax), %edx
	movl	-64(%ebp), %eax
	subl	$8, %eax
	movl	(%eax), %eax
	cmpl	%eax, %edx
	jl	L301
L300:
	.loc 5 984 7 discriminator 3
	movl	$1, 8(%esp)
	movl	$1, 4(%esp)
	leal	-64(%ebp), %eax
	movl	%eax, (%esp)
	call	__ZL14stbiw__sbgrowfPPvii
L301:
	.loc 5 984 7 discriminator 5
	movl	-72(%ebp), %eax
	shrl	$8, %eax
	movl	%eax, %esi
	movl	-64(%ebp), %ebx
	movl	-64(%ebp), %eax
	leal	-4(%eax), %edx
	movl	(%edx), %eax
	leal	1(%eax), %ecx
	movl	%ecx, (%edx)
	addl	%ebx, %eax
	movl	%esi, %edx
	movb	%dl, (%eax)
	.loc 5 985 7 is_stmt 1 discriminator 5
	movl	-64(%ebp), %eax
	testl	%eax, %eax
	je	L302
	.loc 5 985 7 is_stmt 0 discriminator 2
	movl	-64(%ebp), %eax
	subl	$4, %eax
	movl	(%eax), %eax
	leal	1(%eax), %edx
	movl	-64(%ebp), %eax
	subl	$8, %eax
	movl	(%eax), %eax
	cmpl	%eax, %edx
	jl	L303
L302:
	.loc 5 985 7 discriminator 3
	movl	$1, 8(%esp)
	movl	$1, 4(%esp)
	leal	-64(%ebp), %eax
	movl	%eax, (%esp)
	call	__ZL14stbiw__sbgrowfPPvii
L303:
	.loc 5 985 7 discriminator 5
	movl	-72(%ebp), %esi
	movl	-64(%ebp), %ebx
	movl	-64(%ebp), %eax
	leal	-4(%eax), %edx
	movl	(%edx), %eax
	leal	1(%eax), %ecx
	movl	%ecx, (%edx)
	addl	%ebx, %eax
	movl	%esi, %edx
	movb	%dl, (%eax)
LBE60:
	.loc 5 987 13 is_stmt 1 discriminator 5
	movl	-64(%ebp), %eax
	movl	-4(%eax), %edx
	movl	16(%ebp), %eax
	movl	%edx, (%eax)
	.loc 5 989 4 discriminator 5
	movl	16(%ebp), %eax
	movl	(%eax), %eax
	movl	%eax, %ecx
	movl	-64(%ebp), %eax
	movl	-64(%ebp), %edx
	subl	$8, %edx
	movl	%ecx, 8(%esp)
	movl	%eax, 4(%esp)
	movl	%edx, (%esp)
	call	_memmove
	.loc 5 990 11 discriminator 5
	movl	-64(%ebp), %eax
	.loc 5 990 29 discriminator 5
	subl	$8, %eax
L304:
	.loc 5 992 1 discriminator 1
	addl	$96, %esp
	popl	%ebx
	.cfi_restore 3
	popl	%esi
	.cfi_restore 6
	popl	%ebp
	.cfi_restore 5
	.cfi_def_cfa 4, 4
	ret
	.cfi_endproc
LFE1768:
	.data
	.align 32
__ZZL12stbiw__crc32PhiE9crc_table:
	.long	0
	.long	1996959894
	.long	-301047508
	.long	-1727442502
	.long	124634137
	.long	1886057615
	.long	-379345611
	.long	-1637575261
	.long	249268274
	.long	2044508324
	.long	-522852066
	.long	-1747789432
	.long	162941995
	.long	2125561021
	.long	-407360249
	.long	-1866523247
	.long	498536548
	.long	1789927666
	.long	-205950648
	.long	-2067906082
	.long	450548861
	.long	1843258603
	.long	-187386543
	.long	-2083289657
	.long	325883990
	.long	1684777152
	.long	-43845254
	.long	-1973040660
	.long	335633487
	.long	1661365465
	.long	-99664541
	.long	-1928851979
	.long	997073096
	.long	1281953886
	.long	-715111964
	.long	-1570279054
	.long	1006888145
	.long	1258607687
	.long	-770865667
	.long	-1526024853
	.long	901097722
	.long	1119000684
	.long	-608450090
	.long	-1396901568
	.long	853044451
	.long	1172266101
	.long	-589951537
	.long	-1412350631
	.long	651767980
	.long	1373503546
	.long	-925412992
	.long	-1076862698
	.long	565507253
	.long	1454621731
	.long	-809855591
	.long	-1195530993
	.long	671266974
	.long	1594198024
	.long	-972236366
	.long	-1324619484
	.long	795835527
	.long	1483230225
	.long	-1050600021
	.long	-1234817731
	.long	1994146192
	.long	31158534
	.long	-1731059524
	.long	-271249366
	.long	1907459465
	.long	112637215
	.long	-1614814043
	.long	-390540237
	.long	2013776290
	.long	251722036
	.long	-1777751922
	.long	-519137256
	.long	2137656763
	.long	141376813
	.long	-1855689577
	.long	-429695999
	.long	1802195444
	.long	476864866
	.long	-2056965928
	.long	-228458418
	.long	1812370925
	.long	453092731
	.long	-2113342271
	.long	-183516073
	.long	1706088902
	.long	314042704
	.long	-1950435094
	.long	-54949764
	.long	1658658271
	.long	366619977
	.long	-1932296973
	.long	-69972891
	.long	1303535960
	.long	984961486
	.long	-1547960204
	.long	-725929758
	.long	1256170817
	.long	1037604311
	.long	-1529756563
	.long	-740887301
	.long	1131014506
	.long	879679996
	.long	-1385723834
	.long	-631195440
	.long	1141124467
	.long	855842277
	.long	-1442165665
	.long	-586318647
	.long	1342533948
	.long	654459306
	.long	-1106571248
	.long	-921952122
	.long	1466479909
	.long	544179635
	.long	-1184443383
	.long	-832445281
	.long	1591671054
	.long	702138776
	.long	-1328506846
	.long	-942167884
	.long	1504918807
	.long	783551873
	.long	-1212326853
	.long	-1061524307
	.long	-306674912
	.long	-1698712650
	.long	62317068
	.long	1957810842
	.long	-355121351
	.long	-1647151185
	.long	81470997
	.long	1943803523
	.long	-480048366
	.long	-1805370492
	.long	225274430
	.long	2053790376
	.long	-468791541
	.long	-1828061283
	.long	167816743
	.long	2097651377
	.long	-267414716
	.long	-2029476910
	.long	503444072
	.long	1762050814
	.long	-144550051
	.long	-2140837941
	.long	426522225
	.long	1852507879
	.long	-19653770
	.long	-1982649376
	.long	282753626
	.long	1742555852
	.long	-105259153
	.long	-1900089351
	.long	397917763
	.long	1622183637
	.long	-690576408
	.long	-1580100738
	.long	953729732
	.long	1340076626
	.long	-776247311
	.long	-1497606297
	.long	1068828381
	.long	1219638859
	.long	-670225446
	.long	-1358292148
	.long	906185462
	.long	1090812512
	.long	-547295293
	.long	-1469587627
	.long	829329135
	.long	1181335161
	.long	-882789492
	.long	-1134132454
	.long	628085408
	.long	1382605366
	.long	-871598187
	.long	-1156888829
	.long	570562233
	.long	1426400815
	.long	-977650754
	.long	-1296233688
	.long	733239954
	.long	1555261956
	.long	-1026031705
	.long	-1244606671
	.long	752459403
	.long	1541320221
	.long	-1687895376
	.long	-328994266
	.long	1969922972
	.long	40735498
	.long	-1677130071
	.long	-351390145
	.long	1913087877
	.long	83908371
	.long	-1782625662
	.long	-491226604
	.long	2075208622
	.long	213261112
	.long	-1831694693
	.long	-438977011
	.long	2094854071
	.long	198958881
	.long	-2032938284
	.long	-237706686
	.long	1759359992
	.long	534414190
	.long	-2118248755
	.long	-155638181
	.long	1873836001
	.long	414664567
	.long	-2012718362
	.long	-15766928
	.long	1711684554
	.long	285281116
	.long	-1889165569
	.long	-127750551
	.long	1634467795
	.long	376229701
	.long	-1609899400
	.long	-686959890
	.long	1308918612
	.long	956543938
	.long	-1486412191
	.long	-799009033
	.long	1231636301
	.long	1047427035
	.long	-1362007478
	.long	-640263460
	.long	1088359270
	.long	936918000
	.long	-1447252397
	.long	-558129467
	.long	1202900863
	.long	817233897
	.long	-1111625188
	.long	-893730166
	.long	1404277552
	.long	615818150
	.long	-1160759803
	.long	-841546093
	.long	1423857449
	.long	601450431
	.long	-1285129682
	.long	-1000256840
	.long	1567103746
	.long	711928724
	.long	-1274298825
	.long	-1022587231
	.long	1510334235
	.long	755167117
	.text
	.def	__ZL12stbiw__crc32Phi;	.scl	3;	.type	32;	.endef
__ZL12stbiw__crc32Phi:
LFB1769:
	.loc 5 995 1
	.cfi_startproc
	pushl	%ebp
	.cfi_def_cfa_offset 8
	.cfi_offset 5, -8
	movl	%esp, %ebp
	.cfi_def_cfa_register 5
	subl	$16, %esp
	.loc 5 1035 17
	movl	$-1, -4(%ebp)
	.loc 5 1037 10
	movl	$0, -8(%ebp)
L308:
	.loc 5 1037 16 discriminator 3
	movl	-8(%ebp), %eax
	cmpl	12(%ebp), %eax
	jge	L307
	.loc 5 1038 18 discriminator 2
	movl	-4(%ebp), %eax
	shrl	$8, %eax
	movl	%eax, %ecx
	.loc 5 1038 44 discriminator 2
	movl	-8(%ebp), %edx
	movl	8(%ebp), %eax
	addl	%edx, %eax
	movzbl	(%eax), %eax
	movzbl	%al, %edx
	.loc 5 1038 53 discriminator 2
	movl	-4(%ebp), %eax
	movzbl	%al, %eax
	.loc 5 1038 46 discriminator 2
	xorl	%edx, %eax
	.loc 5 1038 60 discriminator 2
	movl	__ZZL12stbiw__crc32PhiE9crc_table(,%eax,4), %eax
	.loc 5 1038 11 discriminator 2
	xorl	%ecx, %eax
	movl	%eax, -4(%ebp)
	.loc 5 1037 4 discriminator 2
	addl	$1, -8(%ebp)
	jmp	L308
L307:
	.loc 5 1039 12
	movl	-4(%ebp), %eax
	notl	%eax
	.loc 5 1041 1
	leave
	.cfi_restore 5
	.cfi_def_cfa 4, 4
	ret
	.cfi_endproc
LFE1769:
	.def	__ZL12stbiw__wpcrcPPhi;	.scl	3;	.type	32;	.endef
__ZL12stbiw__wpcrcPPhi:
LFB1770:
	.loc 5 1048 1
	.cfi_startproc
	pushl	%ebp
	.cfi_def_cfa_offset 8
	.cfi_offset 5, -8
	movl	%esp, %ebp
	.cfi_def_cfa_register 5
	pushl	%ebx
	subl	$24, %esp
	.cfi_offset 3, -12
	.loc 5 1049 35
	movl	12(%ebp), %eax
	leal	4(%eax), %edx
	.loc 5 1049 36
	movl	8(%ebp), %eax
	movl	(%eax), %eax
	.loc 5 1049 48
	movl	12(%ebp), %ecx
	movl	$-4, %ebx
	subl	%ecx, %ebx
	movl	%ebx, %ecx
	.loc 5 1049 35
	addl	%ecx, %eax
	movl	%edx, 4(%esp)
	movl	%eax, (%esp)
	call	__ZL12stbiw__crc32Phi
	.loc 5 1049 58
	movl	%eax, -8(%ebp)
	.loc 5 1050 4
	movl	-8(%ebp), %eax
	shrl	$24, %eax
	movl	%eax, %edx
	movl	8(%ebp), %eax
	movl	(%eax), %eax
	movb	%dl, (%eax)
	movl	-8(%ebp), %eax
	shrl	$16, %eax
	movl	%eax, %edx
	movl	8(%ebp), %eax
	movl	(%eax), %eax
	addl	$1, %eax
	movb	%dl, (%eax)
	movl	-8(%ebp), %eax
	shrl	$8, %eax
	movl	%eax, %edx
	movl	8(%ebp), %eax
	movl	(%eax), %eax
	addl	$2, %eax
	movb	%dl, (%eax)
	movl	-8(%ebp), %edx
	movl	8(%ebp), %eax
	movl	(%eax), %eax
	addl	$3, %eax
	movb	%dl, (%eax)
	movl	8(%ebp), %eax
	movl	(%eax), %eax
	leal	4(%eax), %edx
	movl	8(%ebp), %eax
	movl	%edx, (%eax)
	.loc 5 1051 1
	nop
	addl	$24, %esp
	popl	%ebx
	.cfi_restore 3
	popl	%ebp
	.cfi_restore 5
	.cfi_def_cfa 4, 4
	ret
	.cfi_endproc
LFE1770:
	.def	__ZL12stbiw__paethiii;	.scl	3;	.type	32;	.endef
__ZL12stbiw__paethiii:
LFB1771:
	.loc 5 1054 1
	.cfi_startproc
	pushl	%ebp
	.cfi_def_cfa_offset 8
	.cfi_offset 5, -8
	movl	%esp, %ebp
	.cfi_def_cfa_register 5
	subl	$16, %esp
	.loc 5 1055 14
	movl	8(%ebp), %edx
	movl	12(%ebp), %eax
	addl	%eax, %edx
	.loc 5 1055 18
	movl	16(%ebp), %eax
	.loc 5 1055 8
	subl	%eax, %edx
	movl	%edx, %eax
	movl	%eax, -4(%ebp)
	.loc 5 1055 33
	movl	8(%ebp), %eax
	movl	-4(%ebp), %edx
	subl	%eax, %edx
	.loc 5 1055 23
	movl	%edx, %eax
	sarl	$31, %eax
	xorl	%eax, %edx
	movl	%edx, -8(%ebp)
	subl	%eax, -8(%ebp)
	.loc 5 1055 48
	movl	12(%ebp), %eax
	movl	-4(%ebp), %edx
	subl	%eax, %edx
	.loc 5 1055 38
	movl	%edx, %eax
	sarl	$31, %eax
	xorl	%eax, %edx
	movl	%edx, -12(%ebp)
	subl	%eax, -12(%ebp)
	.loc 5 1055 63
	movl	16(%ebp), %eax
	movl	-4(%ebp), %edx
	subl	%eax, %edx
	.loc 5 1055 53
	movl	%edx, %eax
	sarl	$31, %eax
	xorl	%eax, %edx
	movl	%edx, -16(%ebp)
	subl	%eax, -16(%ebp)
	.loc 5 1056 4
	movl	-8(%ebp), %eax
	cmpl	-12(%ebp), %eax
	jg	L312
	.loc 5 1056 17 discriminator 1
	movl	-8(%ebp), %eax
	cmpl	-16(%ebp), %eax
	jg	L312
	.loc 5 1056 37 discriminator 2
	movl	8(%ebp), %eax
	jmp	L313
L312:
	.loc 5 1057 4
	movl	-12(%ebp), %eax
	cmpl	-16(%ebp), %eax
	jg	L314
	.loc 5 1057 25 discriminator 1
	movl	12(%ebp), %eax
	jmp	L313
L314:
	.loc 5 1058 11
	movl	16(%ebp), %eax
L313:
	.loc 5 1059 1
	leave
	.cfi_restore 5
	.cfi_def_cfa 4, 4
	ret
	.cfi_endproc
LFE1771:
	.data
	.align 4
__ZZL22stbiw__encode_png_linePhiiiiiiPaE7mapping:
	.long	0
	.long	1
	.long	2
	.long	3
	.long	4
	.align 4
__ZZL22stbiw__encode_png_linePhiiiiiiPaE8firstmap:
	.long	0
	.long	1
	.long	0
	.long	5
	.long	6
	.text
	.def	__ZL22stbiw__encode_png_linePhiiiiiiPa;	.scl	3;	.type	32;	.endef
__ZL22stbiw__encode_png_linePhiiiiiiPa:
LFB1772:
	.loc 5 1063 1
	.cfi_startproc
	pushl	%ebp
	.cfi_def_cfa_offset 8
	.cfi_offset 5, -8
	movl	%esp, %ebp
	.cfi_def_cfa_register 5
	pushl	%esi
	pushl	%ebx
	subl	$48, %esp
	.cfi_offset 6, -12
	.cfi_offset 3, -16
	.loc 5 1066 9
	cmpl	$0, 24(%ebp)
	je	L316
	.loc 5 1066 9 is_stmt 0 discriminator 1
	movl	$__ZZL22stbiw__encode_png_linePhiiiiiiPaE7mapping, %eax
	jmp	L317
L316:
	.loc 5 1066 9 discriminator 2
	movl	$__ZZL22stbiw__encode_png_linePhiiiiiiPaE8firstmap, %eax
L317:
	.loc 5 1066 9 discriminator 4
	movl	%eax, -16(%ebp)
	.loc 5 1068 32 is_stmt 1 discriminator 4
	movl	32(%ebp), %eax
	leal	0(,%eax,4), %edx
	movl	-16(%ebp), %eax
	addl	%edx, %eax
	.loc 5 1068 8 discriminator 4
	movl	(%eax), %eax
	movl	%eax, -20(%ebp)
	.loc 5 1069 94 discriminator 4
	movl	__ZL30stbi__flip_vertically_on_write, %eax
	.loc 5 1069 79 discriminator 4
	testl	%eax, %eax
	je	L318
	.loc 5 1069 87 discriminator 1
	movl	20(%ebp), %eax
	subl	$1, %eax
	.loc 5 1069 79 discriminator 1
	subl	24(%ebp), %eax
	jmp	L319
L318:
	.loc 5 1069 79 is_stmt 0 discriminator 2
	movl	24(%ebp), %eax
L319:
	.loc 5 1069 45 is_stmt 1 discriminator 4
	imull	12(%ebp), %eax
	movl	%eax, %edx
	.loc 5 1069 19 discriminator 4
	movl	8(%ebp), %eax
	addl	%edx, %eax
	movl	%eax, -24(%ebp)
	.loc 5 1070 73 discriminator 4
	movl	__ZL30stbi__flip_vertically_on_write, %eax
	.loc 5 1070 55 discriminator 4
	testl	%eax, %eax
	je	L320
	.loc 5 1070 55 is_stmt 0 discriminator 1
	movl	12(%ebp), %eax
	negl	%eax
	jmp	L321
L320:
	.loc 5 1070 55 discriminator 2
	movl	12(%ebp), %eax
L321:
	.loc 5 1070 8 is_stmt 1 discriminator 4
	movl	%eax, -28(%ebp)
	.loc 5 1072 4 discriminator 4
	cmpl	$0, -20(%ebp)
	jne	L322
	.loc 5 1073 35
	movl	16(%ebp), %eax
	imull	28(%ebp), %eax
	.loc 5 1073 13
	movl	%eax, 8(%esp)
	movl	-24(%ebp), %eax
	movl	%eax, 4(%esp)
	movl	36(%ebp), %eax
	movl	%eax, (%esp)
	call	_memcpy
	.loc 5 1074 7
	jmp	L315
L322:
	.loc 5 1078 11
	movl	$0, -12(%ebp)
L333:
	.loc 5 1078 18 discriminator 1
	movl	-12(%ebp), %eax
	cmpl	28(%ebp), %eax
	jge	L324
	.loc 5 1079 7
	cmpl	$6, -20(%ebp)
	ja	L325
	movl	-20(%ebp), %eax
	sall	$2, %eax
	addl	$L327, %eax
	movl	(%eax), %eax
	jmp	*%eax
	.section .rdata,"dr"
	.align 4
L327:
	.long	L325
	.long	L332
	.long	L331
	.long	L330
	.long	L329
	.long	L328
	.long	L326
	.text
L332:
	.loc 5 1080 38
	movl	-12(%ebp), %edx
	movl	-24(%ebp), %eax
	addl	%edx, %eax
	movzbl	(%eax), %ecx
	.loc 5 1080 31
	movl	-12(%ebp), %edx
	movl	36(%ebp), %eax
	addl	%edx, %eax
	.loc 5 1080 38
	movl	%ecx, %edx
	.loc 5 1080 33
	movb	%dl, (%eax)
	.loc 5 1080 41
	jmp	L325
L331:
	.loc 5 1081 38
	movl	-12(%ebp), %edx
	movl	-24(%ebp), %eax
	addl	%edx, %eax
	movzbl	(%eax), %edx
	.loc 5 1081 45
	movl	-12(%ebp), %eax
	subl	-28(%ebp), %eax
	movl	%eax, %ecx
	.loc 5 1081 59
	movl	-24(%ebp), %eax
	addl	%ecx, %eax
	movzbl	(%eax), %eax
	.loc 5 1081 40
	movl	%edx, %ecx
	subl	%eax, %ecx
	.loc 5 1081 31
	movl	-12(%ebp), %edx
	movl	36(%ebp), %eax
	addl	%edx, %eax
	.loc 5 1081 40
	movl	%ecx, %edx
	.loc 5 1081 33
	movb	%dl, (%eax)
	.loc 5 1081 62
	jmp	L325
L330:
	.loc 5 1082 38
	movl	-12(%ebp), %edx
	movl	-24(%ebp), %eax
	addl	%edx, %eax
	movzbl	(%eax), %edx
	.loc 5 1082 46
	movl	-12(%ebp), %eax
	subl	-28(%ebp), %eax
	movl	%eax, %ecx
	.loc 5 1082 60
	movl	-24(%ebp), %eax
	addl	%ecx, %eax
	movzbl	(%eax), %eax
	movzbl	%al, %eax
	.loc 5 1082 61
	sarl	%eax
	.loc 5 1082 40
	movl	%edx, %ecx
	subl	%eax, %ecx
	.loc 5 1082 31
	movl	-12(%ebp), %edx
	movl	36(%ebp), %eax
	addl	%edx, %eax
	.loc 5 1082 40
	movl	%ecx, %edx
	.loc 5 1082 33
	movb	%dl, (%eax)
	.loc 5 1082 67
	jmp	L325
L329:
	.loc 5 1083 53
	movl	-12(%ebp), %edx
	movl	-24(%ebp), %eax
	addl	%edx, %eax
	movzbl	(%eax), %ebx
	.loc 5 1083 75
	movl	-12(%ebp), %eax
	subl	-28(%ebp), %eax
	movl	%eax, %edx
	.loc 5 1083 89
	movl	-24(%ebp), %eax
	addl	%edx, %eax
	movzbl	(%eax), %eax
	.loc 5 1083 69
	movzbl	%al, %eax
	movl	$0, 8(%esp)
	movl	%eax, 4(%esp)
	movl	$0, (%esp)
	call	__ZL12stbiw__paethiii
	.loc 5 1083 55
	subl	%eax, %ebx
	movl	%ebx, %ecx
	.loc 5 1083 31
	movl	-12(%ebp), %edx
	movl	36(%ebp), %eax
	addl	%edx, %eax
	.loc 5 1083 55
	movl	%ecx, %edx
	.loc 5 1083 33
	movb	%dl, (%eax)
	.loc 5 1083 96
	jmp	L325
L328:
	.loc 5 1084 38
	movl	-12(%ebp), %edx
	movl	-24(%ebp), %eax
	addl	%edx, %eax
	movzbl	(%eax), %ecx
	.loc 5 1084 31
	movl	-12(%ebp), %edx
	movl	36(%ebp), %eax
	addl	%edx, %eax
	.loc 5 1084 38
	movl	%ecx, %edx
	.loc 5 1084 33
	movb	%dl, (%eax)
	.loc 5 1084 41
	jmp	L325
L326:
	.loc 5 1085 38
	movl	-12(%ebp), %edx
	movl	-24(%ebp), %eax
	addl	%edx, %eax
	movzbl	(%eax), %ecx
	.loc 5 1085 31
	movl	-12(%ebp), %edx
	movl	36(%ebp), %eax
	addl	%edx, %eax
	.loc 5 1085 38
	movl	%ecx, %edx
	.loc 5 1085 33
	movb	%dl, (%eax)
	.loc 5 1085 41
	nop
L325:
	.loc 5 1078 4 discriminator 2
	addl	$1, -12(%ebp)
	jmp	L333
L324:
	.loc 5 1088 4
	cmpl	$6, -20(%ebp)
	ja	L315
	movl	-20(%ebp), %eax
	sall	$2, %eax
	addl	$L335, %eax
	movl	(%eax), %eax
	jmp	*%eax
	.section .rdata,"dr"
	.align 4
L335:
	.long	L315
	.long	L340
	.long	L339
	.long	L338
	.long	L337
	.long	L336
	.long	L334
	.text
L340:
	.loc 5 1089 21
	movl	28(%ebp), %eax
	movl	%eax, -12(%ebp)
L342:
	.loc 5 1089 34 discriminator 3
	movl	16(%ebp), %eax
	imull	28(%ebp), %eax
	.loc 5 1089 27 discriminator 3
	cmpl	%eax, -12(%ebp)
	jge	L353
	.loc 5 1089 63 discriminator 2
	movl	-12(%ebp), %edx
	movl	-24(%ebp), %eax
	addl	%edx, %eax
	movzbl	(%eax), %edx
	.loc 5 1089 70 discriminator 2
	movl	-12(%ebp), %eax
	subl	28(%ebp), %eax
	movl	%eax, %ecx
	.loc 5 1089 72 discriminator 2
	movl	-24(%ebp), %eax
	addl	%ecx, %eax
	movzbl	(%eax), %eax
	.loc 5 1089 65 discriminator 2
	movl	%edx, %ecx
	subl	%eax, %ecx
	.loc 5 1089 56 discriminator 2
	movl	-12(%ebp), %edx
	movl	36(%ebp), %eax
	addl	%edx, %eax
	.loc 5 1089 65 discriminator 2
	movl	%ecx, %edx
	.loc 5 1089 58 discriminator 2
	movb	%dl, (%eax)
	.loc 5 1089 15 discriminator 2
	addl	$1, -12(%ebp)
	jmp	L342
L339:
	.loc 5 1090 21
	movl	28(%ebp), %eax
	movl	%eax, -12(%ebp)
L344:
	.loc 5 1090 34 discriminator 3
	movl	16(%ebp), %eax
	imull	28(%ebp), %eax
	.loc 5 1090 27 discriminator 3
	cmpl	%eax, -12(%ebp)
	jge	L354
	.loc 5 1090 63 discriminator 2
	movl	-12(%ebp), %edx
	movl	-24(%ebp), %eax
	addl	%edx, %eax
	movzbl	(%eax), %edx
	.loc 5 1090 70 discriminator 2
	movl	-12(%ebp), %eax
	subl	-28(%ebp), %eax
	movl	%eax, %ecx
	.loc 5 1090 84 discriminator 2
	movl	-24(%ebp), %eax
	addl	%ecx, %eax
	movzbl	(%eax), %eax
	.loc 5 1090 65 discriminator 2
	movl	%edx, %ecx
	subl	%eax, %ecx
	.loc 5 1090 56 discriminator 2
	movl	-12(%ebp), %edx
	movl	36(%ebp), %eax
	addl	%edx, %eax
	.loc 5 1090 65 discriminator 2
	movl	%ecx, %edx
	.loc 5 1090 58 discriminator 2
	movb	%dl, (%eax)
	.loc 5 1090 15 discriminator 2
	addl	$1, -12(%ebp)
	jmp	L344
L338:
	.loc 5 1091 21
	movl	28(%ebp), %eax
	movl	%eax, -12(%ebp)
L346:
	.loc 5 1091 34 discriminator 3
	movl	16(%ebp), %eax
	imull	28(%ebp), %eax
	.loc 5 1091 27 discriminator 3
	cmpl	%eax, -12(%ebp)
	jge	L355
	.loc 5 1091 63 discriminator 2
	movl	-12(%ebp), %edx
	movl	-24(%ebp), %eax
	addl	%edx, %eax
	movzbl	(%eax), %edx
	.loc 5 1091 72 discriminator 2
	movl	-12(%ebp), %eax
	subl	28(%ebp), %eax
	movl	%eax, %ecx
	.loc 5 1091 74 discriminator 2
	movl	-24(%ebp), %eax
	addl	%ecx, %eax
	movzbl	(%eax), %eax
	movzbl	%al, %ecx
	.loc 5 1091 81 discriminator 2
	movl	-12(%ebp), %eax
	subl	-28(%ebp), %eax
	movl	%eax, %ebx
	.loc 5 1091 95 discriminator 2
	movl	-24(%ebp), %eax
	addl	%ebx, %eax
	movzbl	(%eax), %eax
	movzbl	%al, %eax
	.loc 5 1091 76 discriminator 2
	addl	%ecx, %eax
	.loc 5 1091 97 discriminator 2
	sarl	%eax
	.loc 5 1091 65 discriminator 2
	movl	%edx, %ecx
	subl	%eax, %ecx
	.loc 5 1091 56 discriminator 2
	movl	-12(%ebp), %edx
	movl	36(%ebp), %eax
	addl	%edx, %eax
	.loc 5 1091 65 discriminator 2
	movl	%ecx, %edx
	.loc 5 1091 58 discriminator 2
	movb	%dl, (%eax)
	.loc 5 1091 15 discriminator 2
	addl	$1, -12(%ebp)
	jmp	L346
L337:
	.loc 5 1092 21
	movl	28(%ebp), %eax
	movl	%eax, -12(%ebp)
L348:
	.loc 5 1092 34 discriminator 3
	movl	16(%ebp), %eax
	imull	28(%ebp), %eax
	.loc 5 1092 27 discriminator 3
	cmpl	%eax, -12(%ebp)
	jge	L356
	.loc 5 1092 63 discriminator 2
	movl	-12(%ebp), %edx
	movl	-24(%ebp), %eax
	addl	%edx, %eax
	movzbl	(%eax), %ebx
	.loc 5 1092 111 discriminator 2
	movl	-12(%ebp), %eax
	subl	-28(%ebp), %eax
	.loc 5 1092 125 discriminator 2
	subl	28(%ebp), %eax
	movl	%eax, %edx
	.loc 5 1092 127 discriminator 2
	movl	-24(%ebp), %eax
	addl	%edx, %eax
	movzbl	(%eax), %eax
	.loc 5 1092 79 discriminator 2
	movzbl	%al, %ecx
	.loc 5 1092 91 discriminator 2
	movl	-12(%ebp), %eax
	subl	-28(%ebp), %eax
	movl	%eax, %edx
	.loc 5 1092 105 discriminator 2
	movl	-24(%ebp), %eax
	addl	%edx, %eax
	movzbl	(%eax), %eax
	.loc 5 1092 79 discriminator 2
	movzbl	%al, %edx
	.loc 5 1092 83 discriminator 2
	movl	-12(%ebp), %eax
	subl	28(%ebp), %eax
	movl	%eax, %esi
	.loc 5 1092 85 discriminator 2
	movl	-24(%ebp), %eax
	addl	%esi, %eax
	movzbl	(%eax), %eax
	.loc 5 1092 79 discriminator 2
	movzbl	%al, %eax
	movl	%ecx, 8(%esp)
	movl	%edx, 4(%esp)
	movl	%eax, (%esp)
	call	__ZL12stbiw__paethiii
	.loc 5 1092 65 discriminator 2
	subl	%eax, %ebx
	movl	%ebx, %ecx
	.loc 5 1092 56 discriminator 2
	movl	-12(%ebp), %edx
	movl	36(%ebp), %eax
	addl	%edx, %eax
	.loc 5 1092 65 discriminator 2
	movl	%ecx, %edx
	.loc 5 1092 58 discriminator 2
	movb	%dl, (%eax)
	.loc 5 1092 15 discriminator 2
	addl	$1, -12(%ebp)
	jmp	L348
L336:
	.loc 5 1093 21
	movl	28(%ebp), %eax
	movl	%eax, -12(%ebp)
L350:
	.loc 5 1093 34 discriminator 3
	movl	16(%ebp), %eax
	imull	28(%ebp), %eax
	.loc 5 1093 27 discriminator 3
	cmpl	%eax, -12(%ebp)
	jge	L357
	.loc 5 1093 63 discriminator 2
	movl	-12(%ebp), %edx
	movl	-24(%ebp), %eax
	addl	%edx, %eax
	movzbl	(%eax), %edx
	.loc 5 1093 71 discriminator 2
	movl	-12(%ebp), %eax
	subl	28(%ebp), %eax
	movl	%eax, %ecx
	.loc 5 1093 73 discriminator 2
	movl	-24(%ebp), %eax
	addl	%ecx, %eax
	movzbl	(%eax), %eax
	movzbl	%al, %eax
	.loc 5 1093 74 discriminator 2
	sarl	%eax
	.loc 5 1093 65 discriminator 2
	movl	%edx, %ecx
	subl	%eax, %ecx
	.loc 5 1093 56 discriminator 2
	movl	-12(%ebp), %edx
	movl	36(%ebp), %eax
	addl	%edx, %eax
	.loc 5 1093 65 discriminator 2
	movl	%ecx, %edx
	.loc 5 1093 58 discriminator 2
	movb	%dl, (%eax)
	.loc 5 1093 15 discriminator 2
	addl	$1, -12(%ebp)
	jmp	L350
L334:
	.loc 5 1094 21
	movl	28(%ebp), %eax
	movl	%eax, -12(%ebp)
L352:
	.loc 5 1094 34 discriminator 3
	movl	16(%ebp), %eax
	imull	28(%ebp), %eax
	.loc 5 1094 27 discriminator 3
	cmpl	%eax, -12(%ebp)
	jge	L358
	.loc 5 1094 63 discriminator 2
	movl	-12(%ebp), %edx
	movl	-24(%ebp), %eax
	addl	%edx, %eax
	movzbl	(%eax), %ebx
	.loc 5 1094 83 discriminator 2
	movl	-12(%ebp), %eax
	subl	28(%ebp), %eax
	movl	%eax, %edx
	.loc 5 1094 85 discriminator 2
	movl	-24(%ebp), %eax
	addl	%edx, %eax
	movzbl	(%eax), %eax
	.loc 5 1094 79 discriminator 2
	movzbl	%al, %eax
	movl	$0, 8(%esp)
	movl	$0, 4(%esp)
	movl	%eax, (%esp)
	call	__ZL12stbiw__paethiii
	.loc 5 1094 65 discriminator 2
	subl	%eax, %ebx
	movl	%ebx, %ecx
	.loc 5 1094 56 discriminator 2
	movl	-12(%ebp), %edx
	movl	36(%ebp), %eax
	addl	%edx, %eax
	.loc 5 1094 65 discriminator 2
	movl	%ecx, %edx
	.loc 5 1094 58 discriminator 2
	movb	%dl, (%eax)
	.loc 5 1094 15 discriminator 2
	addl	$1, -12(%ebp)
	jmp	L352
L353:
	.loc 5 1089 75
	nop
	jmp	L315
L354:
	.loc 5 1090 87
	nop
	jmp	L315
L355:
	.loc 5 1091 103
	nop
	jmp	L315
L356:
	.loc 5 1092 131
	nop
	jmp	L315
L357:
	.loc 5 1093 80
	nop
	jmp	L315
L358:
	.loc 5 1094 94
	nop
L315:
	.loc 5 1096 1
	addl	$48, %esp
	popl	%ebx
	.cfi_restore 3
	popl	%esi
	.cfi_restore 6
	popl	%ebp
	.cfi_restore 5
	.cfi_def_cfa 4, 4
	ret
	.cfi_endproc
LFE1772:
	.section .rdata,"dr"
LC16:
	.ascii "o == out + *out_len\0"
	.text
	.globl	_stbi_write_png_to_mem
	.def	_stbi_write_png_to_mem;	.scl	2;	.type	32;	.endef
_stbi_write_png_to_mem:
LFB1773:
	.loc 5 1099 1
	.cfi_startproc
	pushl	%ebp
	.cfi_def_cfa_offset 8
	.cfi_offset 5, -8
	movl	%esp, %ebp
	.cfi_def_cfa_register 5
	pushl	%ebx
	subl	$116, %esp
	.cfi_offset 3, -12
	.loc 5 1100 8
	movl	_stbi_write_force_png_filter, %eax
	movl	%eax, -12(%ebp)
	.loc 5 1101 8
	movl	$-1, -72(%ebp)
	movl	$0, -68(%ebp)
	movl	$4, -64(%ebp)
	movl	$2, -60(%ebp)
	movl	$6, -56(%ebp)
	.loc 5 1102 18
	movb	$-119, -80(%ebp)
	movb	$80, -79(%ebp)
	movb	$78, -78(%ebp)
	movb	$71, -77(%ebp)
	movb	$13, -76(%ebp)
	movb	$10, -75(%ebp)
	movb	$26, -74(%ebp)
	movb	$10, -73(%ebp)
	.loc 5 1107 4
	cmpl	$0, 12(%ebp)
	jne	L360
	.loc 5 1108 24
	movl	16(%ebp), %eax
	.loc 5 1108 20
	movl	24(%ebp), %edx
	imull	%edx, %eax
	movl	%eax, 12(%ebp)
L360:
	.loc 5 1110 4
	cmpl	$4, -12(%ebp)
	jle	L361
	.loc 5 1111 20
	movl	$-1, -12(%ebp)
L361:
	.loc 5 1114 29
	movl	16(%ebp), %eax
	imull	24(%ebp), %eax
	leal	1(%eax), %edx
	movl	20(%ebp), %eax
	imull	%edx, %eax
	movl	%eax, (%esp)
	call	_malloc
	movl	%eax, -40(%ebp)
	.loc 5 1114 56
	cmpl	$0, -40(%ebp)
	jne	L362
	.loc 5 1114 74 discriminator 1
	movl	$0, %eax
	jmp	L379
L362:
	.loc 5 1115 34
	movl	16(%ebp), %eax
	imull	24(%ebp), %eax
	movl	%eax, (%esp)
	call	_malloc
	movl	%eax, -44(%ebp)
	.loc 5 1115 55
	cmpl	$0, -44(%ebp)
	jne	L364
	.loc 5 1115 75 discriminator 1
	movl	-40(%ebp), %eax
	movl	%eax, (%esp)
	call	_free
	.loc 5 1115 100 discriminator 1
	movl	$0, %eax
	jmp	L379
L364:
LBB61:
	.loc 5 1116 10
	movl	$0, -16(%ebp)
L373:
	.loc 5 1116 16 discriminator 1
	movl	20(%ebp), %eax
	cmpl	%eax, -16(%ebp)
	jge	L365
LBB62:
LBB63:
	.loc 5 1118 7
	cmpl	$0, -12(%ebp)
	js	L366
	.loc 5 1119 22
	movl	-12(%ebp), %eax
	movl	%eax, -20(%ebp)
	.loc 5 1120 32
	movl	20(%ebp), %ecx
	movl	16(%ebp), %edx
	movl	8(%ebp), %eax
	movl	-44(%ebp), %ebx
	movl	%ebx, 28(%esp)
	movl	-12(%ebp), %ebx
	movl	%ebx, 24(%esp)
	movl	24(%ebp), %ebx
	movl	%ebx, 20(%esp)
	movl	-16(%ebp), %ebx
	movl	%ebx, 16(%esp)
	movl	%ecx, 12(%esp)
	movl	%edx, 8(%esp)
	movl	12(%ebp), %edx
	movl	%edx, 4(%esp)
	movl	%eax, (%esp)
	call	__ZL22stbiw__encode_png_linePhiiiiiiPa
	jmp	L367
L366:
LBB64:
	.loc 5 1122 14
	movl	$0, -24(%ebp)
	.loc 5 1122 31
	movl	$2147483647, -28(%ebp)
	.loc 5 1123 27
	movl	$0, -20(%ebp)
L372:
	.loc 5 1123 44 discriminator 1
	cmpl	$4, -20(%ebp)
	jg	L368
	.loc 5 1124 35
	movl	20(%ebp), %ecx
	movl	16(%ebp), %edx
	movl	8(%ebp), %eax
	movl	-44(%ebp), %ebx
	movl	%ebx, 28(%esp)
	movl	-20(%ebp), %ebx
	movl	%ebx, 24(%esp)
	movl	24(%ebp), %ebx
	movl	%ebx, 20(%esp)
	movl	-16(%ebp), %ebx
	movl	%ebx, 16(%esp)
	movl	%ecx, 12(%esp)
	movl	%edx, 8(%esp)
	movl	12(%ebp), %edx
	movl	%edx, 4(%esp)
	movl	%eax, (%esp)
	call	__ZL22stbiw__encode_png_linePhiiiiiiPa
	.loc 5 1127 17
	movl	$0, -32(%ebp)
	.loc 5 1128 20
	movl	$0, -36(%ebp)
L370:
	.loc 5 1128 30 discriminator 3
	movl	16(%ebp), %eax
	imull	24(%ebp), %eax
	.loc 5 1128 27 discriminator 3
	cmpl	%eax, -36(%ebp)
	jge	L369
	.loc 5 1129 54 discriminator 2
	movl	-36(%ebp), %edx
	movl	-44(%ebp), %eax
	addl	%edx, %eax
	movzbl	(%eax), %eax
	.loc 5 1129 27 discriminator 2
	movsbl	%al, %eax
	.loc 5 1129 26 discriminator 2
	cltd
	xorl	%edx, %eax
	subl	%edx, %eax
	.loc 5 1129 20 discriminator 2
	addl	%eax, -32(%ebp)
	.loc 5 1128 13 discriminator 2
	addl	$1, -36(%ebp)
	jmp	L370
L369:
	.loc 5 1131 13
	movl	-32(%ebp), %eax
	cmpl	-28(%ebp), %eax
	jge	L371
	.loc 5 1132 32
	movl	-32(%ebp), %eax
	movl	%eax, -28(%ebp)
	.loc 5 1133 28
	movl	-20(%ebp), %eax
	movl	%eax, -24(%ebp)
L371:
	.loc 5 1123 10 discriminator 2
	addl	$1, -20(%ebp)
	jmp	L372
L368:
	.loc 5 1136 10
	movl	-20(%ebp), %eax
	cmpl	-24(%ebp), %eax
	je	L367
	.loc 5 1137 35
	movl	20(%ebp), %ecx
	movl	16(%ebp), %edx
	movl	8(%ebp), %eax
	movl	-44(%ebp), %ebx
	movl	%ebx, 28(%esp)
	movl	-24(%ebp), %ebx
	movl	%ebx, 24(%esp)
	movl	24(%ebp), %ebx
	movl	%ebx, 20(%esp)
	movl	-16(%ebp), %ebx
	movl	%ebx, 16(%esp)
	movl	%ecx, 12(%esp)
	movl	%edx, 8(%esp)
	movl	12(%ebp), %edx
	movl	%edx, 4(%esp)
	movl	%eax, (%esp)
	call	__ZL22stbiw__encode_png_linePhiiiiiiPa
	.loc 5 1138 25
	movl	-24(%ebp), %eax
	movl	%eax, -20(%ebp)
L367:
LBE64:
LBE63:
	.loc 5 1142 16 discriminator 2
	movl	16(%ebp), %eax
	imull	24(%ebp), %eax
	.loc 5 1142 18 discriminator 2
	addl	$1, %eax
	.loc 5 1142 13 discriminator 2
	imull	-16(%ebp), %eax
	movl	%eax, %edx
	.loc 5 1142 21 discriminator 2
	movl	-40(%ebp), %eax
	addl	%edx, %eax
	.loc 5 1142 23 discriminator 2
	movl	-20(%ebp), %edx
	movb	%dl, (%eax)
	.loc 5 1143 7 discriminator 2
	movl	16(%ebp), %eax
	imull	24(%ebp), %eax
	movl	%eax, %ecx
	movl	16(%ebp), %eax
	imull	24(%ebp), %eax
	addl	$1, %eax
	imull	-16(%ebp), %eax
	leal	1(%eax), %edx
	movl	-40(%ebp), %eax
	addl	%eax, %edx
	movl	%ecx, 8(%esp)
	movl	-44(%ebp), %eax
	movl	%eax, 4(%esp)
	movl	%edx, (%esp)
	call	_memmove
LBE62:
	.loc 5 1116 4 discriminator 2
	addl	$1, -16(%ebp)
	jmp	L373
L365:
LBE61:
	.loc 5 1145 4
	movl	-44(%ebp), %eax
	movl	%eax, (%esp)
	call	_free
	.loc 5 1146 29
	movl	_stbi_write_png_compression_level, %edx
	.loc 5 1146 41
	movl	16(%ebp), %eax
	imull	24(%ebp), %eax
	.loc 5 1146 43
	leal	1(%eax), %ecx
	.loc 5 1146 29
	movl	20(%ebp), %eax
	imull	%ecx, %eax
	movl	%edx, 12(%esp)
	leal	-88(%ebp), %edx
	movl	%edx, 8(%esp)
	movl	%eax, 4(%esp)
	movl	-40(%ebp), %eax
	movl	%eax, (%esp)
	call	_stbi_zlib_compress
	movl	%eax, -48(%ebp)
	.loc 5 1147 4
	movl	-40(%ebp), %eax
	movl	%eax, (%esp)
	call	_free
	.loc 5 1148 4
	cmpl	$0, -48(%ebp)
	jne	L374
	.loc 5 1148 22 discriminator 1
	movl	$0, %eax
	jmp	L379
L374:
	.loc 5 1151 28
	movl	-88(%ebp), %eax
	addl	$57, %eax
	movl	%eax, (%esp)
	call	_malloc
	movl	%eax, -52(%ebp)
	.loc 5 1152 4
	cmpl	$0, -52(%ebp)
	jne	L375
	.loc 5 1152 21 discriminator 1
	movl	$0, %eax
	jmp	L379
L375:
	.loc 5 1153 35
	movl	-88(%ebp), %eax
	leal	57(%eax), %edx
	.loc 5 1153 13
	movl	28(%ebp), %eax
	movl	%edx, (%eax)
	.loc 5 1155 5
	movl	-52(%ebp), %eax
	movl	%eax, -84(%ebp)
	.loc 5 1156 4
	movl	-84(%ebp), %ecx
	movl	-80(%ebp), %eax
	movl	-76(%ebp), %edx
	movl	%eax, (%ecx)
	movl	%edx, 4(%ecx)
	.loc 5 1156 29
	movl	-84(%ebp), %eax
	addl	$8, %eax
	movl	%eax, -84(%ebp)
	.loc 5 1157 4
	movl	-84(%ebp), %eax
	movb	$0, (%eax)
	movl	-84(%ebp), %eax
	addl	$1, %eax
	movb	$0, (%eax)
	movl	-84(%ebp), %eax
	addl	$2, %eax
	movb	$0, (%eax)
	movl	-84(%ebp), %eax
	addl	$3, %eax
	movb	$13, (%eax)
	movl	-84(%ebp), %eax
	addl	$4, %eax
	movl	%eax, -84(%ebp)
	.loc 5 1158 4
	movl	$73, %edx
	movl	-84(%ebp), %eax
	movb	%dl, (%eax)
	movl	$72, %edx
	movl	-84(%ebp), %eax
	addl	$1, %eax
	movb	%dl, (%eax)
	movl	$68, %edx
	movl	-84(%ebp), %eax
	addl	$2, %eax
	movb	%dl, (%eax)
	movl	$82, %edx
	movl	-84(%ebp), %eax
	addl	$3, %eax
	movb	%dl, (%eax)
	movl	-84(%ebp), %eax
	addl	$4, %eax
	movl	%eax, -84(%ebp)
	.loc 5 1159 4
	movl	16(%ebp), %eax
	shrl	$24, %eax
	movl	%eax, %edx
	movl	-84(%ebp), %eax
	movb	%dl, (%eax)
	movl	16(%ebp), %eax
	sarl	$16, %eax
	movl	%eax, %edx
	movl	-84(%ebp), %eax
	addl	$1, %eax
	movb	%dl, (%eax)
	movl	16(%ebp), %eax
	sarl	$8, %eax
	movl	%eax, %edx
	movl	-84(%ebp), %eax
	addl	$2, %eax
	movb	%dl, (%eax)
	movl	16(%ebp), %edx
	movl	-84(%ebp), %eax
	addl	$3, %eax
	movb	%dl, (%eax)
	movl	-84(%ebp), %eax
	addl	$4, %eax
	movl	%eax, -84(%ebp)
	.loc 5 1160 4
	movl	20(%ebp), %eax
	shrl	$24, %eax
	movl	%eax, %edx
	movl	-84(%ebp), %eax
	movb	%dl, (%eax)
	movl	20(%ebp), %eax
	sarl	$16, %eax
	movl	%eax, %edx
	movl	-84(%ebp), %eax
	addl	$1, %eax
	movb	%dl, (%eax)
	movl	20(%ebp), %eax
	sarl	$8, %eax
	movl	%eax, %edx
	movl	-84(%ebp), %eax
	addl	$2, %eax
	movb	%dl, (%eax)
	movl	20(%ebp), %edx
	movl	-84(%ebp), %eax
	addl	$3, %eax
	movb	%dl, (%eax)
	movl	-84(%ebp), %eax
	addl	$4, %eax
	movl	%eax, -84(%ebp)
	.loc 5 1161 6
	movl	-84(%ebp), %eax
	leal	1(%eax), %edx
	movl	%edx, -84(%ebp)
	.loc 5 1161 9
	movb	$8, (%eax)
	.loc 5 1162 11
	movl	24(%ebp), %eax
	movl	-72(%ebp,%eax,4), %ecx
	.loc 5 1162 6
	movl	-84(%ebp), %eax
	leal	1(%eax), %edx
	movl	%edx, -84(%ebp)
	.loc 5 1162 9
	movl	%ecx, %edx
	movb	%dl, (%eax)
	.loc 5 1163 6
	movl	-84(%ebp), %eax
	leal	1(%eax), %edx
	movl	%edx, -84(%ebp)
	.loc 5 1163 9
	movb	$0, (%eax)
	.loc 5 1164 6
	movl	-84(%ebp), %eax
	leal	1(%eax), %edx
	movl	%edx, -84(%ebp)
	.loc 5 1164 9
	movb	$0, (%eax)
	.loc 5 1165 6
	movl	-84(%ebp), %eax
	leal	1(%eax), %edx
	movl	%edx, -84(%ebp)
	.loc 5 1165 9
	movb	$0, (%eax)
	.loc 5 1166 16
	movl	$13, 4(%esp)
	leal	-84(%ebp), %eax
	movl	%eax, (%esp)
	call	__ZL12stbiw__wpcrcPPhi
	.loc 5 1168 4
	movl	-88(%ebp), %eax
	shrl	$24, %eax
	movl	%eax, %edx
	movl	-84(%ebp), %eax
	movb	%dl, (%eax)
	movl	-88(%ebp), %eax
	sarl	$16, %eax
	movl	%eax, %edx
	movl	-84(%ebp), %eax
	addl	$1, %eax
	movb	%dl, (%eax)
	movl	-88(%ebp), %eax
	sarl	$8, %eax
	movl	%eax, %edx
	movl	-84(%ebp), %eax
	addl	$2, %eax
	movb	%dl, (%eax)
	movl	-88(%ebp), %edx
	movl	-84(%ebp), %eax
	addl	$3, %eax
	movb	%dl, (%eax)
	movl	-84(%ebp), %eax
	addl	$4, %eax
	movl	%eax, -84(%ebp)
	.loc 5 1169 4
	movl	$73, %edx
	movl	-84(%ebp), %eax
	movb	%dl, (%eax)
	movl	$68, %edx
	movl	-84(%ebp), %eax
	addl	$1, %eax
	movb	%dl, (%eax)
	movl	$65, %edx
	movl	-84(%ebp), %eax
	addl	$2, %eax
	movb	%dl, (%eax)
	movl	$84, %edx
	movl	-84(%ebp), %eax
	addl	$3, %eax
	movb	%dl, (%eax)
	movl	-84(%ebp), %eax
	addl	$4, %eax
	movl	%eax, -84(%ebp)
	.loc 5 1170 4
	movl	-88(%ebp), %eax
	movl	%eax, %edx
	movl	-84(%ebp), %eax
	movl	%edx, 8(%esp)
	movl	-48(%ebp), %edx
	movl	%edx, 4(%esp)
	movl	%eax, (%esp)
	call	_memmove
	.loc 5 1171 6
	movl	-84(%ebp), %eax
	movl	-88(%ebp), %edx
	addl	%edx, %eax
	movl	%eax, -84(%ebp)
	.loc 5 1172 4
	movl	-48(%ebp), %eax
	movl	%eax, (%esp)
	call	_free
	.loc 5 1173 16
	movl	-88(%ebp), %eax
	movl	%eax, 4(%esp)
	leal	-84(%ebp), %eax
	movl	%eax, (%esp)
	call	__ZL12stbiw__wpcrcPPhi
	.loc 5 1175 4
	movl	-84(%ebp), %eax
	movb	$0, (%eax)
	movl	-84(%ebp), %eax
	addl	$1, %eax
	movb	$0, (%eax)
	movl	-84(%ebp), %eax
	addl	$2, %eax
	movb	$0, (%eax)
	movl	-84(%ebp), %eax
	addl	$3, %eax
	movb	$0, (%eax)
	movl	-84(%ebp), %eax
	addl	$4, %eax
	movl	%eax, -84(%ebp)
	.loc 5 1176 4
	movl	$73, %edx
	movl	-84(%ebp), %eax
	movb	%dl, (%eax)
	movl	$69, %edx
	movl	-84(%ebp), %eax
	addl	$1, %eax
	movb	%dl, (%eax)
	movl	$78, %edx
	movl	-84(%ebp), %eax
	addl	$2, %eax
	movb	%dl, (%eax)
	movl	$68, %edx
	movl	-84(%ebp), %eax
	addl	$3, %eax
	movb	%dl, (%eax)
	movl	-84(%ebp), %eax
	addl	$4, %eax
	movl	%eax, -84(%ebp)
	.loc 5 1177 16
	movl	$0, 4(%esp)
	leal	-84(%ebp), %eax
	movl	%eax, (%esp)
	call	__ZL12stbiw__wpcrcPPhi
	.loc 5 1179 4
	movl	28(%ebp), %eax
	movl	(%eax), %eax
	movl	%eax, %edx
	movl	-52(%ebp), %eax
	addl	%eax, %edx
	movl	-84(%ebp), %eax
	cmpl	%eax, %edx
	je	L378
	.loc 5 1179 4 is_stmt 0 discriminator 2
	movl	$1179, 8(%esp)
	movl	$LC4, 4(%esp)
	movl	$LC16, (%esp)
	call	__assert
L378:
	.loc 5 1181 11 is_stmt 1
	movl	-52(%ebp), %eax
L379:
	.loc 5 1182 1 discriminator 1
	addl	$116, %esp
	popl	%ebx
	.cfi_restore 3
	popl	%ebp
	.cfi_restore 5
	.cfi_def_cfa 4, 4
	ret
	.cfi_endproc
LFE1773:
	.globl	_stbi_write_png
	.def	_stbi_write_png;	.scl	2;	.type	32;	.endef
_stbi_write_png:
LFB1774:
	.loc 5 1186 1
	.cfi_startproc
	pushl	%ebp
	.cfi_def_cfa_offset 8
	.cfi_offset 5, -8
	movl	%esp, %ebp
	.cfi_def_cfa_register 5
	subl	$56, %esp
	.loc 5 1189 46
	leal	-20(%ebp), %eax
	movl	%eax, 20(%esp)
	movl	20(%ebp), %eax
	movl	%eax, 16(%esp)
	movl	16(%ebp), %eax
	movl	%eax, 12(%esp)
	movl	12(%ebp), %eax
	movl	%eax, 8(%esp)
	movl	28(%ebp), %eax
	movl	%eax, 4(%esp)
	movl	24(%ebp), %eax
	movl	%eax, (%esp)
	call	_stbi_write_png_to_mem
	movl	%eax, -12(%ebp)
	.loc 5 1190 4
	cmpl	$0, -12(%ebp)
	jne	L381
	.loc 5 1190 28 discriminator 1
	movl	$0, %eax
	jmp	L384
L381:
	.loc 5 1192 20
	movl	$LC3, 4(%esp)
	movl	8(%ebp), %eax
	movl	%eax, (%esp)
	call	__ZL12stbiw__fopenPKcS0_
	movl	%eax, -16(%ebp)
	.loc 5 1193 4
	cmpl	$0, -16(%ebp)
	jne	L383
	.loc 5 1193 14 discriminator 1
	movl	-12(%ebp), %eax
	movl	%eax, (%esp)
	call	_free
	.loc 5 1193 38 discriminator 1
	movl	$0, %eax
	jmp	L384
L383:
	.loc 5 1194 10
	movl	-20(%ebp), %eax
	movl	%eax, %edx
	movl	-16(%ebp), %eax
	movl	%eax, 12(%esp)
	movl	%edx, 8(%esp)
	movl	$1, 4(%esp)
	movl	-12(%ebp), %eax
	movl	%eax, (%esp)
	call	_fwrite
	.loc 5 1195 10
	movl	-16(%ebp), %eax
	movl	%eax, (%esp)
	call	_fclose
	.loc 5 1196 4
	movl	-12(%ebp), %eax
	movl	%eax, (%esp)
	call	_free
	.loc 5 1197 11
	movl	$1, %eax
L384:
	.loc 5 1198 1 discriminator 1
	leave
	.cfi_restore 5
	.cfi_def_cfa 4, 4
	ret
	.cfi_endproc
LFE1774:
	.globl	_stbi_write_png_to_func
	.def	_stbi_write_png_to_func;	.scl	2;	.type	32;	.endef
_stbi_write_png_to_func:
LFB1775:
	.loc 5 1202 1
	.cfi_startproc
	pushl	%ebp
	.cfi_def_cfa_offset 8
	.cfi_offset 5, -8
	movl	%esp, %ebp
	.cfi_def_cfa_register 5
	subl	$56, %esp
	.loc 5 1204 46
	leal	-16(%ebp), %eax
	movl	%eax, 20(%esp)
	movl	24(%ebp), %eax
	movl	%eax, 16(%esp)
	movl	20(%ebp), %eax
	movl	%eax, 12(%esp)
	movl	16(%ebp), %eax
	movl	%eax, 8(%esp)
	movl	32(%ebp), %eax
	movl	%eax, 4(%esp)
	movl	28(%ebp), %eax
	movl	%eax, (%esp)
	call	_stbi_write_png_to_mem
	movl	%eax, -12(%ebp)
	.loc 5 1205 4
	cmpl	$0, -12(%ebp)
	jne	L386
	.loc 5 1205 28 discriminator 1
	movl	$0, %eax
	jmp	L388
L386:
	.loc 5 1206 8
	movl	-16(%ebp), %eax
	movl	%eax, 8(%esp)
	movl	-12(%ebp), %eax
	movl	%eax, 4(%esp)
	movl	12(%ebp), %eax
	movl	%eax, (%esp)
	movl	8(%ebp), %eax
	call	*%eax
LVL15:
	.loc 5 1207 4
	movl	-12(%ebp), %eax
	movl	%eax, (%esp)
	call	_free
	.loc 5 1208 11
	movl	$1, %eax
L388:
	.loc 5 1209 1 discriminator 1
	leave
	.cfi_restore 5
	.cfi_def_cfa 4, 4
	ret
	.cfi_endproc
LFE1775:
	.section .rdata,"dr"
	.align 32
__ZL17stbiw__jpg_ZigZag:
	.byte	0
	.byte	1
	.byte	5
	.byte	6
	.byte	14
	.byte	15
	.byte	27
	.byte	28
	.byte	2
	.byte	4
	.byte	7
	.byte	13
	.byte	16
	.byte	26
	.byte	29
	.byte	42
	.byte	3
	.byte	8
	.byte	12
	.byte	17
	.byte	25
	.byte	30
	.byte	41
	.byte	43
	.byte	9
	.byte	11
	.byte	18
	.byte	24
	.byte	31
	.byte	40
	.byte	44
	.byte	53
	.byte	10
	.byte	19
	.byte	23
	.byte	32
	.byte	39
	.byte	45
	.byte	52
	.byte	54
	.byte	20
	.byte	22
	.byte	33
	.byte	38
	.byte	46
	.byte	51
	.byte	55
	.byte	60
	.byte	21
	.byte	34
	.byte	37
	.byte	47
	.byte	50
	.byte	56
	.byte	59
	.byte	61
	.byte	35
	.byte	36
	.byte	48
	.byte	49
	.byte	57
	.byte	58
	.byte	62
	.byte	63
	.text
	.def	__ZL20stbiw__jpg_writeBitsP19stbi__write_contextPiS1_PKt;	.scl	3;	.type	32;	.endef
__ZL20stbiw__jpg_writeBitsP19stbi__write_contextPiS1_PKt:
LFB1776:
	.loc 5 1223 112
	.cfi_startproc
	pushl	%ebp
	.cfi_def_cfa_offset 8
	.cfi_offset 5, -8
	movl	%esp, %ebp
	.cfi_def_cfa_register 5
	subl	$40, %esp
	.loc 5 1224 8
	movl	12(%ebp), %eax
	movl	(%eax), %eax
	movl	%eax, -12(%ebp)
	.loc 5 1224 27
	movl	16(%ebp), %eax
	movl	(%eax), %eax
	movl	%eax, -16(%ebp)
	.loc 5 1225 18
	movl	20(%ebp), %eax
	addl	$2, %eax
	movzwl	(%eax), %eax
	movzwl	%ax, %eax
	.loc 5 1225 11
	addl	%eax, -16(%ebp)
	.loc 5 1226 18
	movl	20(%ebp), %eax
	movzwl	(%eax), %eax
	movzwl	%ax, %edx
	.loc 5 1226 27
	movl	$24, %eax
	subl	-16(%ebp), %eax
	.loc 5 1226 20
	movl	%eax, %ecx
	sall	%cl, %edx
	movl	%edx, %eax
	.loc 5 1226 11
	orl	%eax, -12(%ebp)
L392:
	.loc 5 1227 17
	cmpl	$7, -16(%ebp)
	jle	L390
LBB65:
	.loc 5 1228 33
	movl	-12(%ebp), %eax
	sarl	$16, %eax
	.loc 5 1228 21
	movb	%al, -17(%ebp)
	.loc 5 1229 18
	movzbl	-17(%ebp), %eax
	movl	%eax, 4(%esp)
	movl	8(%ebp), %eax
	movl	%eax, (%esp)
	call	__ZL11stbiw__putcP19stbi__write_contexth
	.loc 5 1230 7
	cmpb	$-1, -17(%ebp)
	jne	L391
	.loc 5 1231 21
	movl	$0, 4(%esp)
	movl	8(%ebp), %eax
	movl	%eax, (%esp)
	call	__ZL11stbiw__putcP19stbi__write_contexth
L391:
	.loc 5 1233 14
	sall	$8, -12(%ebp)
	.loc 5 1234 14
	subl	$8, -16(%ebp)
LBE65:
	.loc 5 1227 4
	jmp	L392
L390:
	.loc 5 1236 13
	movl	12(%ebp), %eax
	movl	-12(%ebp), %edx
	movl	%edx, (%eax)
	.loc 5 1237 13
	movl	16(%ebp), %eax
	movl	-16(%ebp), %edx
	movl	%edx, (%eax)
	.loc 5 1238 1
	nop
	leave
	.cfi_restore 5
	.cfi_def_cfa 4, 4
	ret
	.cfi_endproc
LFE1776:
	.def	__ZL14stbiw__jpg_DCTPfS_S_S_S_S_S_S_;	.scl	3;	.type	32;	.endef
__ZL14stbiw__jpg_DCTPfS_S_S_S_S_S_S_:
LFB1777:
	.loc 5 1240 124
	.cfi_startproc
	pushl	%ebp
	.cfi_def_cfa_offset 8
	.cfi_offset 5, -8
	movl	%esp, %ebp
	.cfi_def_cfa_register 5
	subl	$112, %esp
	.loc 5 1241 10
	movl	8(%ebp), %eax
	flds	(%eax)
	fstps	-4(%ebp)
	.loc 5 1241 21
	movl	12(%ebp), %eax
	flds	(%eax)
	fstps	-8(%ebp)
	.loc 5 1241 32
	movl	16(%ebp), %eax
	flds	(%eax)
	fstps	-12(%ebp)
	.loc 5 1241 43
	movl	20(%ebp), %eax
	flds	(%eax)
	fstps	-16(%ebp)
	.loc 5 1241 54
	movl	24(%ebp), %eax
	flds	(%eax)
	fstps	-20(%ebp)
	.loc 5 1241 65
	movl	28(%ebp), %eax
	flds	(%eax)
	fstps	-24(%ebp)
	.loc 5 1241 76
	movl	32(%ebp), %eax
	flds	(%eax)
	fstps	-28(%ebp)
	.loc 5 1241 87
	movl	36(%ebp), %eax
	flds	(%eax)
	fstps	-32(%ebp)
	.loc 5 1244 10
	flds	-4(%ebp)
	fadds	-32(%ebp)
	fstps	-36(%ebp)
	.loc 5 1245 10
	flds	-4(%ebp)
	fsubs	-32(%ebp)
	fstps	-40(%ebp)
	.loc 5 1246 10
	flds	-8(%ebp)
	fadds	-28(%ebp)
	fstps	-44(%ebp)
	.loc 5 1247 10
	flds	-8(%ebp)
	fsubs	-28(%ebp)
	fstps	-48(%ebp)
	.loc 5 1248 10
	flds	-12(%ebp)
	fadds	-24(%ebp)
	fstps	-52(%ebp)
	.loc 5 1249 10
	flds	-12(%ebp)
	fsubs	-24(%ebp)
	fstps	-56(%ebp)
	.loc 5 1250 10
	flds	-16(%ebp)
	fadds	-20(%ebp)
	fstps	-60(%ebp)
	.loc 5 1251 10
	flds	-16(%ebp)
	fsubs	-20(%ebp)
	fstps	-64(%ebp)
	.loc 5 1254 10
	flds	-36(%ebp)
	fadds	-60(%ebp)
	fstps	-68(%ebp)
	.loc 5 1255 10
	flds	-36(%ebp)
	fsubs	-60(%ebp)
	fstps	-72(%ebp)
	.loc 5 1256 10
	flds	-44(%ebp)
	fadds	-52(%ebp)
	fstps	-76(%ebp)
	.loc 5 1257 10
	flds	-44(%ebp)
	fsubs	-52(%ebp)
	fstps	-80(%ebp)
	.loc 5 1259 7
	flds	-68(%ebp)
	fadds	-76(%ebp)
	fstps	-4(%ebp)
	.loc 5 1260 7
	flds	-68(%ebp)
	fsubs	-76(%ebp)
	fstps	-20(%ebp)
	.loc 5 1262 16
	flds	-80(%ebp)
	fadds	-72(%ebp)
	.loc 5 1262 7
	flds	LC17
	fmulp	%st, %st(1)
	fstps	-84(%ebp)
	.loc 5 1263 7
	flds	-72(%ebp)
	fadds	-84(%ebp)
	fstps	-12(%ebp)
	.loc 5 1264 7
	flds	-72(%ebp)
	fsubs	-84(%ebp)
	fstps	-28(%ebp)
	.loc 5 1267 10
	flds	-64(%ebp)
	fadds	-56(%ebp)
	fstps	-68(%ebp)
	.loc 5 1268 10
	flds	-56(%ebp)
	fadds	-48(%ebp)
	fstps	-76(%ebp)
	.loc 5 1269 10
	flds	-48(%ebp)
	fadds	-40(%ebp)
	fstps	-80(%ebp)
	.loc 5 1272 16
	flds	-68(%ebp)
	fsubs	-80(%ebp)
	.loc 5 1272 7
	flds	LC18
	fmulp	%st, %st(1)
	fstps	-88(%ebp)
	.loc 5 1273 15
	flds	-68(%ebp)
	flds	LC19
	fmulp	%st, %st(1)
	.loc 5 1273 7
	flds	-88(%ebp)
	faddp	%st, %st(1)
	fstps	-92(%ebp)
	.loc 5 1274 15
	flds	-80(%ebp)
	flds	LC20
	fmulp	%st, %st(1)
	.loc 5 1274 7
	flds	-88(%ebp)
	faddp	%st, %st(1)
	fstps	-96(%ebp)
	.loc 5 1275 7
	flds	-76(%ebp)
	flds	LC17
	fmulp	%st, %st(1)
	fstps	-100(%ebp)
	.loc 5 1277 8
	flds	-40(%ebp)
	fadds	-100(%ebp)
	fstps	-104(%ebp)
	.loc 5 1278 8
	flds	-40(%ebp)
	fsubs	-100(%ebp)
	fstps	-108(%ebp)
	.loc 5 1280 15
	flds	-108(%ebp)
	fadds	-92(%ebp)
	.loc 5 1280 9
	movl	28(%ebp), %eax
	fstps	(%eax)
	.loc 5 1281 15
	flds	-108(%ebp)
	fsubs	-92(%ebp)
	.loc 5 1281 9
	movl	20(%ebp), %eax
	fstps	(%eax)
	.loc 5 1282 15
	flds	-104(%ebp)
	fadds	-96(%ebp)
	.loc 5 1282 9
	movl	12(%ebp), %eax
	fstps	(%eax)
	.loc 5 1283 15
	flds	-104(%ebp)
	fsubs	-96(%ebp)
	.loc 5 1283 9
	movl	36(%ebp), %eax
	fstps	(%eax)
	.loc 5 1285 9
	movl	8(%ebp), %eax
	flds	-4(%ebp)
	fstps	(%eax)
	.loc 5 1285 21
	movl	16(%ebp), %eax
	flds	-12(%ebp)
	fstps	(%eax)
	.loc 5 1285 33
	movl	24(%ebp), %eax
	flds	-20(%ebp)
	fstps	(%eax)
	.loc 5 1285 45
	movl	32(%ebp), %eax
	flds	-28(%ebp)
	fstps	(%eax)
	.loc 5 1286 1
	nop
	leave
	.cfi_restore 5
	.cfi_def_cfa 4, 4
	ret
	.cfi_endproc
LFE1777:
	.def	__ZL19stbiw__jpg_calcBitsiPt;	.scl	3;	.type	32;	.endef
__ZL19stbiw__jpg_calcBitsiPt:
LFB1778:
	.loc 5 1288 66
	.cfi_startproc
	pushl	%ebp
	.cfi_def_cfa_offset 8
	.cfi_offset 5, -8
	movl	%esp, %ebp
	.cfi_def_cfa_register 5
	subl	$16, %esp
	.loc 5 1289 8
	movl	8(%ebp), %eax
	sarl	$31, %eax
	movl	%eax, %edx
	xorl	8(%ebp), %edx
	subl	%eax, %edx
	movl	%edx, %eax
	movl	%eax, -4(%ebp)
	.loc 5 1290 18
	cmpl	$0, 8(%ebp)
	jns	L395
	.loc 5 1290 18 is_stmt 0 discriminator 1
	movl	8(%ebp), %eax
	subl	$1, %eax
	jmp	L396
L395:
	.loc 5 1290 18 discriminator 2
	movl	8(%ebp), %eax
L396:
	.loc 5 1290 8 is_stmt 1 discriminator 4
	movl	%eax, 8(%ebp)
	.loc 5 1291 10 discriminator 4
	movl	12(%ebp), %eax
	addl	$2, %eax
	.loc 5 1291 12 discriminator 4
	movw	$1, (%eax)
L398:
	.loc 5 1292 15
	sarl	-4(%ebp)
	.loc 5 1292 19
	cmpl	$0, -4(%ebp)
	setne	%al
	testb	%al, %al
	je	L397
	.loc 5 1293 15
	movl	12(%ebp), %eax
	addl	$2, %eax
	movzwl	(%eax), %edx
	.loc 5 1293 7
	addl	$1, %edx
	movw	%dx, (%eax)
	.loc 5 1292 4
	jmp	L398
L397:
	.loc 5 1295 31
	movl	12(%ebp), %eax
	addl	$2, %eax
	movzwl	(%eax), %eax
	movzwl	%ax, %eax
	.loc 5 1295 23
	movl	$1, %edx
	movl	%eax, %ecx
	sall	%cl, %edx
	movl	%edx, %eax
	.loc 5 1295 33
	subl	$1, %eax
	movl	%eax, %edx
	.loc 5 1295 18
	movl	8(%ebp), %eax
	andl	%edx, %eax
	movl	%eax, %edx
	.loc 5 1295 12
	movl	12(%ebp), %eax
	movw	%dx, (%eax)
	.loc 5 1296 1
	nop
	leave
	.cfi_restore 5
	.cfi_def_cfa 4, 4
	ret
	.cfi_endproc
LFE1778:
	.def	__ZL20stbiw__jpg_processDUP19stbi__write_contextPiS1_PfiS2_iPA2_KtS5_;	.scl	3;	.type	32;	.endef
__ZL20stbiw__jpg_processDUP19stbi__write_contextPiS1_PfiS2_iPA2_KtS5_:
LFB1779:
	.loc 5 1298 202
	.cfi_startproc
	pushl	%ebp
	.cfi_def_cfa_offset 8
	.cfi_offset 5, -8
	movl	%esp, %ebp
	.cfi_def_cfa_register 5
	pushl	%edi
	pushl	%esi
	pushl	%ebx
	subl	$412, %esp
	.cfi_offset 7, -12
	.cfi_offset 6, -16
	.cfi_offset 3, -20
	.loc 5 1299 48
	movl	40(%ebp), %eax
	movzwl	(%eax), %eax
	.loc 5 1299 65
	movw	%ax, -80(%ebp)
	.loc 5 1299 63
	movl	40(%ebp), %eax
	movzwl	2(%eax), %eax
	.loc 5 1299 65
	movw	%ax, -78(%ebp)
	.loc 5 1300 51
	movl	40(%ebp), %eax
	addl	$960, %eax
	.loc 5 1300 54
	movzwl	(%eax), %eax
	.loc 5 1300 71
	movw	%ax, -84(%ebp)
	.loc 5 1300 66
	movl	40(%ebp), %eax
	addl	$960, %eax
	.loc 5 1300 69
	movzwl	2(%eax), %eax
	.loc 5 1300 71
	movw	%ax, -82(%ebp)
	.loc 5 1305 15
	movl	$0, -28(%ebp)
	.loc 5 1305 20
	movl	24(%ebp), %eax
	sall	$3, %eax
	movl	%eax, -60(%ebp)
L401:
	.loc 5 1305 41 discriminator 3
	movl	-28(%ebp), %eax
	cmpl	-60(%ebp), %eax
	jge	L400
	.loc 5 1306 153 discriminator 2
	movl	-28(%ebp), %eax
	.loc 5 1306 21 discriminator 2
	addl	$7, %eax
	leal	0(,%eax,4), %edx
	movl	20(%ebp), %eax
	leal	(%edx,%eax), %esi
	.loc 5 1306 136 discriminator 2
	movl	-28(%ebp), %eax
	.loc 5 1306 21 discriminator 2
	addl	$6, %eax
	leal	0(,%eax,4), %edx
	movl	20(%ebp), %eax
	addl	%edx, %eax
	movl	%eax, -372(%ebp)
	.loc 5 1306 119 discriminator 2
	movl	-28(%ebp), %eax
	.loc 5 1306 21 discriminator 2
	addl	$5, %eax
	leal	0(,%eax,4), %edx
	movl	20(%ebp), %eax
	leal	(%edx,%eax), %ecx
	movl	%ecx, -376(%ebp)
	.loc 5 1306 102 discriminator 2
	movl	-28(%ebp), %eax
	.loc 5 1306 21 discriminator 2
	addl	$4, %eax
	leal	0(,%eax,4), %edx
	movl	20(%ebp), %eax
	leal	(%edx,%eax), %ebx
	movl	%ebx, -380(%ebp)
	.loc 5 1306 85 discriminator 2
	movl	-28(%ebp), %eax
	.loc 5 1306 21 discriminator 2
	addl	$3, %eax
	leal	0(,%eax,4), %edx
	movl	20(%ebp), %eax
	leal	(%edx,%eax), %edi
	.loc 5 1306 68 discriminator 2
	movl	-28(%ebp), %eax
	.loc 5 1306 21 discriminator 2
	addl	$2, %eax
	leal	0(,%eax,4), %edx
	movl	20(%ebp), %eax
	leal	(%edx,%eax), %ebx
	.loc 5 1306 51 discriminator 2
	movl	-28(%ebp), %eax
	.loc 5 1306 21 discriminator 2
	addl	$1, %eax
	leal	0(,%eax,4), %edx
	movl	20(%ebp), %eax
	leal	(%edx,%eax), %ecx
	.loc 5 1306 34 discriminator 2
	movl	-28(%ebp), %eax
	leal	0(,%eax,4), %edx
	.loc 5 1306 21 discriminator 2
	movl	20(%ebp), %eax
	addl	%edx, %eax
	movl	%esi, 28(%esp)
	movl	-372(%ebp), %esi
	movl	%esi, 24(%esp)
	movl	-376(%ebp), %esi
	movl	%esi, 20(%esp)
	movl	-380(%ebp), %esi
	movl	%esi, 16(%esp)
	movl	%edi, 12(%esp)
	movl	%ebx, 8(%esp)
	movl	%ecx, 4(%esp)
	movl	%eax, (%esp)
	call	__ZL14stbiw__jpg_DCTPfS_S_S_S_S_S_S_
	.loc 5 1305 52 discriminator 2
	movl	24(%ebp), %eax
	addl	%eax, -28(%ebp)
	.loc 5 1305 4 discriminator 2
	jmp	L401
L400:
	.loc 5 1309 15
	movl	$0, -28(%ebp)
L403:
	.loc 5 1309 26 discriminator 3
	cmpl	$7, -28(%ebp)
	jg	L402
	.loc 5 1311 98 discriminator 2
	movl	24(%ebp), %edx
	movl	%edx, %eax
	sall	$3, %eax
	subl	%edx, %eax
	movl	%eax, %edx
	.loc 5 1311 88 discriminator 2
	movl	-28(%ebp), %eax
	addl	%edx, %eax
	.loc 5 1311 100 discriminator 2
	leal	0(,%eax,4), %edx
	.loc 5 1310 21 discriminator 2
	movl	20(%ebp), %eax
	leal	(%edx,%eax), %esi
	.loc 5 1311 71 discriminator 2
	movl	24(%ebp), %edx
	movl	%edx, %eax
	addl	%eax, %eax
	addl	%edx, %eax
	addl	%eax, %eax
	movl	%eax, %edx
	.loc 5 1311 61 discriminator 2
	movl	-28(%ebp), %eax
	addl	%edx, %eax
	.loc 5 1311 73 discriminator 2
	leal	0(,%eax,4), %edx
	.loc 5 1310 21 discriminator 2
	movl	20(%ebp), %eax
	addl	%edx, %eax
	movl	%eax, -372(%ebp)
	.loc 5 1311 44 discriminator 2
	movl	24(%ebp), %edx
	movl	%edx, %eax
	sall	$2, %eax
	addl	%eax, %edx
	.loc 5 1311 34 discriminator 2
	movl	-28(%ebp), %eax
	addl	%edx, %eax
	.loc 5 1311 46 discriminator 2
	leal	0(,%eax,4), %edx
	.loc 5 1310 21 discriminator 2
	movl	20(%ebp), %eax
	leal	(%edx,%eax), %edi
	movl	%edi, -376(%ebp)
	.loc 5 1310 138 discriminator 2
	movl	24(%ebp), %eax
	leal	0(,%eax,4), %edx
	.loc 5 1310 128 discriminator 2
	movl	-28(%ebp), %eax
	addl	%edx, %eax
	.loc 5 1310 140 discriminator 2
	leal	0(,%eax,4), %edx
	.loc 5 1310 21 discriminator 2
	movl	20(%ebp), %eax
	leal	(%edx,%eax), %ecx
	movl	%ecx, -380(%ebp)
	.loc 5 1310 111 discriminator 2
	movl	24(%ebp), %edx
	movl	%edx, %eax
	addl	%eax, %eax
	addl	%eax, %edx
	.loc 5 1310 101 discriminator 2
	movl	-28(%ebp), %eax
	addl	%edx, %eax
	.loc 5 1310 113 discriminator 2
	leal	0(,%eax,4), %edx
	.loc 5 1310 21 discriminator 2
	movl	20(%ebp), %eax
	leal	(%edx,%eax), %edi
	.loc 5 1310 84 discriminator 2
	movl	24(%ebp), %eax
	leal	(%eax,%eax), %edx
	.loc 5 1310 74 discriminator 2
	movl	-28(%ebp), %eax
	addl	%edx, %eax
	.loc 5 1310 86 discriminator 2
	leal	0(,%eax,4), %edx
	.loc 5 1310 21 discriminator 2
	movl	20(%ebp), %eax
	leal	(%edx,%eax), %ebx
	.loc 5 1310 49 discriminator 2
	movl	-28(%ebp), %edx
	movl	24(%ebp), %eax
	addl	%edx, %eax
	.loc 5 1310 59 discriminator 2
	leal	0(,%eax,4), %edx
	.loc 5 1310 21 discriminator 2
	movl	20(%ebp), %eax
	leal	(%edx,%eax), %ecx
	.loc 5 1310 34 discriminator 2
	movl	-28(%ebp), %eax
	leal	0(,%eax,4), %edx
	.loc 5 1310 21 discriminator 2
	movl	20(%ebp), %eax
	addl	%edx, %eax
	movl	%esi, 28(%esp)
	movl	-372(%ebp), %esi
	movl	%esi, 24(%esp)
	movl	-376(%ebp), %esi
	movl	%esi, 20(%esp)
	movl	-380(%ebp), %esi
	movl	%esi, 16(%esp)
	movl	%edi, 12(%esp)
	movl	%ebx, 8(%esp)
	movl	%ecx, 4(%esp)
	movl	%eax, (%esp)
	call	__ZL14stbiw__jpg_DCTPfS_S_S_S_S_S_S_
	.loc 5 1309 4 discriminator 2
	addl	$1, -28(%ebp)
	jmp	L403
L402:
LBB66:
	.loc 5 1314 10
	movl	$0, -48(%ebp)
	.loc 5 1314 16
	movl	$0, -36(%ebp)
L410:
	.loc 5 1314 22 discriminator 1
	cmpl	$7, -48(%ebp)
	jg	L404
LBB67:
LBB68:
	.loc 5 1315 13
	movl	$0, -44(%ebp)
L409:
	.loc 5 1315 20 discriminator 2
	cmpl	$7, -44(%ebp)
	jg	L405
LBB69:
	.loc 5 1317 15
	movl	-48(%ebp), %eax
	imull	24(%ebp), %eax
	movl	%eax, %edx
	.loc 5 1317 12
	movl	-44(%ebp), %eax
	addl	%edx, %eax
	movl	%eax, -32(%ebp)
	.loc 5 1318 19
	movl	-32(%ebp), %eax
	leal	0(,%eax,4), %edx
	movl	20(%ebp), %eax
	addl	%edx, %eax
	flds	(%eax)
	.loc 5 1318 28
	movl	-36(%ebp), %eax
	leal	0(,%eax,4), %edx
	movl	28(%ebp), %eax
	addl	%edx, %eax
	flds	(%eax)
	.loc 5 1318 12
	fmulp	%st, %st(1)
	fstps	-64(%ebp)
	.loc 5 1321 37
	flds	-64(%ebp)
	fldz
	fcomip	%st(1), %st
	fstp	%st(0)
	jbe	L427
	.loc 5 1321 53 discriminator 1
	flds	-64(%ebp)
	flds	LC22
	fsubrp	%st, %st(1)
	.loc 5 1321 37 discriminator 1
	fnstcw	-362(%ebp)
	movzwl	-362(%ebp), %eax
	orb	$12, %ah
	movw	%ax, -364(%ebp)
	fldcw	-364(%ebp)
	fistpl	-368(%ebp)
	fldcw	-362(%ebp)
	movl	-368(%ebp), %edx
	jmp	L408
L427:
	.loc 5 1321 64 discriminator 2
	flds	-64(%ebp)
	flds	LC22
	faddp	%st, %st(1)
	.loc 5 1321 37 discriminator 2
	fnstcw	-362(%ebp)
	movzwl	-362(%ebp), %eax
	orb	$12, %ah
	movw	%ax, -364(%ebp)
	fldcw	-364(%ebp)
	fistpl	-368(%ebp)
	fldcw	-362(%ebp)
	movl	-368(%ebp), %edx
L408:
	.loc 5 1321 32 discriminator 4
	movl	-36(%ebp), %eax
	addl	$__ZL17stbiw__jpg_ZigZag, %eax
	movzbl	(%eax), %eax
	movzbl	%al, %eax
	.loc 5 1321 35 discriminator 4
	movl	%edx, -340(%ebp,%eax,4)
LBE69:
	.loc 5 1315 7 discriminator 4
	addl	$1, -44(%ebp)
	addl	$1, -36(%ebp)
	jmp	L409
L405:
LBE68:
LBE67:
	.loc 5 1314 4 discriminator 2
	addl	$1, -48(%ebp)
	jmp	L410
L404:
LBE66:
	.loc 5 1326 15
	movl	-340(%ebp), %eax
	.loc 5 1326 9
	subl	32(%ebp), %eax
	movl	%eax, -68(%ebp)
LBB70:
	.loc 5 1327 4
	cmpl	$0, -68(%ebp)
	jne	L411
	.loc 5 1328 27
	movl	36(%ebp), %eax
	movl	%eax, 12(%esp)
	movl	16(%ebp), %eax
	movl	%eax, 8(%esp)
	movl	12(%ebp), %eax
	movl	%eax, 4(%esp)
	movl	8(%ebp), %eax
	movl	%eax, (%esp)
	call	__ZL20stbiw__jpg_writeBitsP19stbi__write_contextPiS1_PKt
	jmp	L412
L411:
LBB71:
	.loc 5 1331 26
	leal	-344(%ebp), %eax
	movl	%eax, 4(%esp)
	movl	-68(%ebp), %eax
	movl	%eax, (%esp)
	call	__ZL19stbiw__jpg_calcBitsiPt
	.loc 5 1332 58
	movzwl	-342(%ebp), %eax
	movzwl	%ax, %eax
	.loc 5 1332 59
	leal	0(,%eax,4), %edx
	movl	36(%ebp), %eax
	addl	%edx, %eax
	.loc 5 1332 27
	movl	%eax, 12(%esp)
	movl	16(%ebp), %eax
	movl	%eax, 8(%esp)
	movl	12(%ebp), %eax
	movl	%eax, 4(%esp)
	movl	8(%ebp), %eax
	movl	%eax, (%esp)
	call	__ZL20stbiw__jpg_writeBitsP19stbi__write_contextPiS1_PKt
	.loc 5 1333 27
	leal	-344(%ebp), %eax
	movl	%eax, 12(%esp)
	movl	16(%ebp), %eax
	movl	%eax, 8(%esp)
	movl	12(%ebp), %eax
	movl	%eax, 4(%esp)
	movl	8(%ebp), %eax
	movl	%eax, (%esp)
	call	__ZL20stbiw__jpg_writeBitsP19stbi__write_contextPiS1_PKt
L412:
LBE71:
LBE70:
	.loc 5 1336 12
	movl	$63, -40(%ebp)
L414:
	.loc 5 1337 21 discriminator 3
	cmpl	$0, -40(%ebp)
	jle	L413
	.loc 5 1337 34 discriminator 1
	movl	-40(%ebp), %eax
	movl	-340(%ebp,%eax,4), %eax
	.loc 5 1337 21 discriminator 1
	testl	%eax, %eax
	jne	L413
	.loc 5 1337 4 discriminator 2
	subl	$1, -40(%ebp)
	jmp	L414
L413:
	.loc 5 1340 4
	cmpl	$0, -40(%ebp)
	jne	L415
	.loc 5 1341 27
	leal	-80(%ebp), %eax
	movl	%eax, 12(%esp)
	movl	16(%ebp), %eax
	movl	%eax, 8(%esp)
	movl	12(%ebp), %eax
	movl	%eax, 4(%esp)
	movl	8(%ebp), %eax
	movl	%eax, (%esp)
	call	__ZL20stbiw__jpg_writeBitsP19stbi__write_contextPiS1_PKt
	.loc 5 1342 18
	movl	-340(%ebp), %eax
	jmp	L425
L415:
LBB72:
	.loc 5 1344 10
	movl	$1, -32(%ebp)
L423:
	.loc 5 1344 17 discriminator 1
	movl	-32(%ebp), %eax
	cmpl	-40(%ebp), %eax
	jg	L417
LBB73:
	.loc 5 1345 11
	movl	-32(%ebp), %eax
	movl	%eax, -72(%ebp)
L419:
	.loc 5 1348 18 discriminator 3
	movl	-32(%ebp), %eax
	movl	-340(%ebp,%eax,4), %eax
	.loc 5 1348 23 discriminator 3
	testl	%eax, %eax
	jne	L418
	.loc 5 1348 23 is_stmt 0 discriminator 1
	movl	-32(%ebp), %eax
	cmpl	-40(%ebp), %eax
	jg	L418
	.loc 5 1348 7 is_stmt 1 discriminator 2
	addl	$1, -32(%ebp)
	jmp	L419
L418:
	.loc 5 1350 16
	movl	-32(%ebp), %eax
	subl	-72(%ebp), %eax
	movl	%eax, -52(%ebp)
LBB74:
	.loc 5 1351 7
	cmpl	$15, -52(%ebp)
	jle	L420
LBB75:
	.loc 5 1352 14
	movl	-52(%ebp), %eax
	sarl	$4, %eax
	movl	%eax, -76(%ebp)
	.loc 5 1354 23
	movl	$1, -56(%ebp)
L422:
	.loc 5 1354 36 discriminator 1
	movl	-56(%ebp), %eax
	cmpl	-76(%ebp), %eax
	jg	L421
	.loc 5 1355 33
	leal	-84(%ebp), %eax
	movl	%eax, 12(%esp)
	movl	16(%ebp), %eax
	movl	%eax, 8(%esp)
	movl	12(%ebp), %eax
	movl	%eax, 4(%esp)
	movl	8(%ebp), %eax
	movl	%eax, (%esp)
	call	__ZL20stbiw__jpg_writeBitsP19stbi__write_contextPiS1_PKt
	.loc 5 1354 10
	addl	$1, -56(%ebp)
	jmp	L422
L421:
	.loc 5 1356 19
	andl	$15, -52(%ebp)
L420:
LBE75:
LBE74:
	.loc 5 1358 26
	movl	-32(%ebp), %eax
	movl	-340(%ebp,%eax,4), %eax
	leal	-348(%ebp), %edx
	movl	%edx, 4(%esp)
	movl	%eax, (%esp)
	call	__ZL19stbiw__jpg_calcBitsiPt
	.loc 5 1359 61
	movl	-52(%ebp), %eax
	sall	$4, %eax
	movl	%eax, %edx
	.loc 5 1359 72
	movzwl	-346(%ebp), %eax
	movzwl	%ax, %eax
	.loc 5 1359 65
	addl	%edx, %eax
	.loc 5 1359 73
	leal	0(,%eax,4), %edx
	movl	40(%ebp), %eax
	addl	%edx, %eax
	.loc 5 1359 27
	movl	%eax, 12(%esp)
	movl	16(%ebp), %eax
	movl	%eax, 8(%esp)
	movl	12(%ebp), %eax
	movl	%eax, 4(%esp)
	movl	8(%ebp), %eax
	movl	%eax, (%esp)
	call	__ZL20stbiw__jpg_writeBitsP19stbi__write_contextPiS1_PKt
	.loc 5 1360 27
	leal	-348(%ebp), %eax
	movl	%eax, 12(%esp)
	movl	16(%ebp), %eax
	movl	%eax, 8(%esp)
	movl	12(%ebp), %eax
	movl	%eax, 4(%esp)
	movl	8(%ebp), %eax
	movl	%eax, (%esp)
	call	__ZL20stbiw__jpg_writeBitsP19stbi__write_contextPiS1_PKt
LBE73:
	.loc 5 1344 4
	addl	$1, -32(%ebp)
	jmp	L423
L417:
LBE72:
	.loc 5 1362 4
	cmpl	$63, -40(%ebp)
	je	L424
	.loc 5 1363 27
	leal	-80(%ebp), %eax
	movl	%eax, 12(%esp)
	movl	16(%ebp), %eax
	movl	%eax, 8(%esp)
	movl	12(%ebp), %eax
	movl	%eax, 4(%esp)
	movl	8(%ebp), %eax
	movl	%eax, (%esp)
	call	__ZL20stbiw__jpg_writeBitsP19stbi__write_contextPiS1_PKt
L424:
	.loc 5 1365 15
	movl	-340(%ebp), %eax
L425:
	.loc 5 1366 1 discriminator 1
	addl	$412, %esp
	popl	%ebx
	.cfi_restore 3
	popl	%esi
	.cfi_restore 6
	popl	%edi
	.cfi_restore 7
	popl	%ebp
	.cfi_restore 5
	.cfi_def_cfa 4, 4
	ret
	.cfi_endproc
LFE1779:
	.section .rdata,"dr"
	.align 4
__ZZL19stbi_write_jpg_coreP19stbi__write_contextiiiPKviE24std_dc_luminance_nrcodes:
	.byte	0
	.byte	0
	.byte	1
	.byte	5
	.byte	1
	.byte	1
	.byte	1
	.byte	1
	.byte	1
	.byte	1
	.byte	0
	.byte	0
	.byte	0
	.byte	0
	.byte	0
	.byte	0
	.byte	0
	.align 4
__ZZL19stbi_write_jpg_coreP19stbi__write_contextiiiPKviE23std_dc_luminance_values:
	.byte	0
	.byte	1
	.byte	2
	.byte	3
	.byte	4
	.byte	5
	.byte	6
	.byte	7
	.byte	8
	.byte	9
	.byte	10
	.byte	11
	.align 4
__ZZL19stbi_write_jpg_coreP19stbi__write_contextiiiPKviE24std_ac_luminance_nrcodes:
	.byte	0
	.byte	0
	.byte	2
	.byte	1
	.byte	3
	.byte	3
	.byte	2
	.byte	4
	.byte	3
	.byte	5
	.byte	5
	.byte	4
	.byte	4
	.byte	0
	.byte	0
	.byte	1
	.byte	125
	.align 32
__ZZL19stbi_write_jpg_coreP19stbi__write_contextiiiPKviE23std_ac_luminance_values:
	.byte	1
	.byte	2
	.byte	3
	.byte	0
	.byte	4
	.byte	17
	.byte	5
	.byte	18
	.byte	33
	.byte	49
	.byte	65
	.byte	6
	.byte	19
	.byte	81
	.byte	97
	.byte	7
	.byte	34
	.byte	113
	.byte	20
	.byte	50
	.byte	-127
	.byte	-111
	.byte	-95
	.byte	8
	.byte	35
	.byte	66
	.byte	-79
	.byte	-63
	.byte	21
	.byte	82
	.byte	-47
	.byte	-16
	.byte	36
	.byte	51
	.byte	98
	.byte	114
	.byte	-126
	.byte	9
	.byte	10
	.byte	22
	.byte	23
	.byte	24
	.byte	25
	.byte	26
	.byte	37
	.byte	38
	.byte	39
	.byte	40
	.byte	41
	.byte	42
	.byte	52
	.byte	53
	.byte	54
	.byte	55
	.byte	56
	.byte	57
	.byte	58
	.byte	67
	.byte	68
	.byte	69
	.byte	70
	.byte	71
	.byte	72
	.byte	73
	.byte	74
	.byte	83
	.byte	84
	.byte	85
	.byte	86
	.byte	87
	.byte	88
	.byte	89
	.byte	90
	.byte	99
	.byte	100
	.byte	101
	.byte	102
	.byte	103
	.byte	104
	.byte	105
	.byte	106
	.byte	115
	.byte	116
	.byte	117
	.byte	118
	.byte	119
	.byte	120
	.byte	121
	.byte	122
	.byte	-125
	.byte	-124
	.byte	-123
	.byte	-122
	.byte	-121
	.byte	-120
	.byte	-119
	.byte	-118
	.byte	-110
	.byte	-109
	.byte	-108
	.byte	-107
	.byte	-106
	.byte	-105
	.byte	-104
	.byte	-103
	.byte	-102
	.byte	-94
	.byte	-93
	.byte	-92
	.byte	-91
	.byte	-90
	.byte	-89
	.byte	-88
	.byte	-87
	.byte	-86
	.byte	-78
	.byte	-77
	.byte	-76
	.byte	-75
	.byte	-74
	.byte	-73
	.byte	-72
	.byte	-71
	.byte	-70
	.byte	-62
	.byte	-61
	.byte	-60
	.byte	-59
	.byte	-58
	.byte	-57
	.byte	-56
	.byte	-55
	.byte	-54
	.byte	-46
	.byte	-45
	.byte	-44
	.byte	-43
	.byte	-42
	.byte	-41
	.byte	-40
	.byte	-39
	.byte	-38
	.byte	-31
	.byte	-30
	.byte	-29
	.byte	-28
	.byte	-27
	.byte	-26
	.byte	-25
	.byte	-24
	.byte	-23
	.byte	-22
	.byte	-15
	.byte	-14
	.byte	-13
	.byte	-12
	.byte	-11
	.byte	-10
	.byte	-9
	.byte	-8
	.byte	-7
	.byte	-6
	.align 4
__ZZL19stbi_write_jpg_coreP19stbi__write_contextiiiPKviE26std_dc_chrominance_nrcodes:
	.byte	0
	.byte	0
	.byte	3
	.byte	1
	.byte	1
	.byte	1
	.byte	1
	.byte	1
	.byte	1
	.byte	1
	.byte	1
	.byte	1
	.byte	0
	.byte	0
	.byte	0
	.byte	0
	.byte	0
	.align 4
__ZZL19stbi_write_jpg_coreP19stbi__write_contextiiiPKviE25std_dc_chrominance_values:
	.byte	0
	.byte	1
	.byte	2
	.byte	3
	.byte	4
	.byte	5
	.byte	6
	.byte	7
	.byte	8
	.byte	9
	.byte	10
	.byte	11
	.align 4
__ZZL19stbi_write_jpg_coreP19stbi__write_contextiiiPKviE26std_ac_chrominance_nrcodes:
	.byte	0
	.byte	0
	.byte	2
	.byte	1
	.byte	2
	.byte	4
	.byte	4
	.byte	3
	.byte	4
	.byte	7
	.byte	5
	.byte	4
	.byte	4
	.byte	0
	.byte	1
	.byte	2
	.byte	119
	.align 32
__ZZL19stbi_write_jpg_coreP19stbi__write_contextiiiPKviE25std_ac_chrominance_values:
	.byte	0
	.byte	1
	.byte	2
	.byte	3
	.byte	17
	.byte	4
	.byte	5
	.byte	33
	.byte	49
	.byte	6
	.byte	18
	.byte	65
	.byte	81
	.byte	7
	.byte	97
	.byte	113
	.byte	19
	.byte	34
	.byte	50
	.byte	-127
	.byte	8
	.byte	20
	.byte	66
	.byte	-111
	.byte	-95
	.byte	-79
	.byte	-63
	.byte	9
	.byte	35
	.byte	51
	.byte	82
	.byte	-16
	.byte	21
	.byte	98
	.byte	114
	.byte	-47
	.byte	10
	.byte	22
	.byte	36
	.byte	52
	.byte	-31
	.byte	37
	.byte	-15
	.byte	23
	.byte	24
	.byte	25
	.byte	26
	.byte	38
	.byte	39
	.byte	40
	.byte	41
	.byte	42
	.byte	53
	.byte	54
	.byte	55
	.byte	56
	.byte	57
	.byte	58
	.byte	67
	.byte	68
	.byte	69
	.byte	70
	.byte	71
	.byte	72
	.byte	73
	.byte	74
	.byte	83
	.byte	84
	.byte	85
	.byte	86
	.byte	87
	.byte	88
	.byte	89
	.byte	90
	.byte	99
	.byte	100
	.byte	101
	.byte	102
	.byte	103
	.byte	104
	.byte	105
	.byte	106
	.byte	115
	.byte	116
	.byte	117
	.byte	118
	.byte	119
	.byte	120
	.byte	121
	.byte	122
	.byte	-126
	.byte	-125
	.byte	-124
	.byte	-123
	.byte	-122
	.byte	-121
	.byte	-120
	.byte	-119
	.byte	-118
	.byte	-110
	.byte	-109
	.byte	-108
	.byte	-107
	.byte	-106
	.byte	-105
	.byte	-104
	.byte	-103
	.byte	-102
	.byte	-94
	.byte	-93
	.byte	-92
	.byte	-91
	.byte	-90
	.byte	-89
	.byte	-88
	.byte	-87
	.byte	-86
	.byte	-78
	.byte	-77
	.byte	-76
	.byte	-75
	.byte	-74
	.byte	-73
	.byte	-72
	.byte	-71
	.byte	-70
	.byte	-62
	.byte	-61
	.byte	-60
	.byte	-59
	.byte	-58
	.byte	-57
	.byte	-56
	.byte	-55
	.byte	-54
	.byte	-46
	.byte	-45
	.byte	-44
	.byte	-43
	.byte	-42
	.byte	-41
	.byte	-40
	.byte	-39
	.byte	-38
	.byte	-30
	.byte	-29
	.byte	-28
	.byte	-27
	.byte	-26
	.byte	-25
	.byte	-24
	.byte	-23
	.byte	-22
	.byte	-14
	.byte	-13
	.byte	-12
	.byte	-11
	.byte	-10
	.byte	-9
	.byte	-8
	.byte	-7
	.byte	-6
	.align 32
__ZZL19stbi_write_jpg_coreP19stbi__write_contextiiiPKviE6YDC_HT:
	.word	0
	.word	2
	.word	2
	.word	3
	.word	3
	.word	3
	.word	4
	.word	3
	.word	5
	.word	3
	.word	6
	.word	3
	.word	14
	.word	4
	.word	30
	.word	5
	.word	62
	.word	6
	.word	126
	.word	7
	.word	254
	.word	8
	.word	510
	.word	9
	.space 976
	.align 32
__ZZL19stbi_write_jpg_coreP19stbi__write_contextiiiPKviE7UVDC_HT:
	.word	0
	.word	2
	.word	1
	.word	2
	.word	2
	.word	2
	.word	6
	.word	3
	.word	14
	.word	4
	.word	30
	.word	5
	.word	62
	.word	6
	.word	126
	.word	7
	.word	254
	.word	8
	.word	510
	.word	9
	.word	1022
	.word	10
	.word	2046
	.word	11
	.space 976
	.align 32
__ZZL19stbi_write_jpg_coreP19stbi__write_contextiiiPKviE6YAC_HT:
	.word	10
	.word	4
	.word	0
	.word	2
	.word	1
	.word	2
	.word	4
	.word	3
	.word	11
	.word	4
	.word	26
	.word	5
	.word	120
	.word	7
	.word	248
	.word	8
	.word	1014
	.word	10
	.word	-126
	.word	16
	.word	-125
	.word	16
	.word	0
	.word	0
	.word	0
	.word	0
	.word	0
	.word	0
	.word	0
	.word	0
	.word	0
	.word	0
	.word	0
	.word	0
	.word	12
	.word	4
	.word	27
	.word	5
	.word	121
	.word	7
	.word	502
	.word	9
	.word	2038
	.word	11
	.word	-124
	.word	16
	.word	-123
	.word	16
	.word	-122
	.word	16
	.word	-121
	.word	16
	.word	-120
	.word	16
	.word	0
	.word	0
	.word	0
	.word	0
	.word	0
	.word	0
	.word	0
	.word	0
	.word	0
	.word	0
	.word	0
	.word	0
	.word	28
	.word	5
	.word	249
	.word	8
	.word	1015
	.word	10
	.word	4084
	.word	12
	.word	-119
	.word	16
	.word	-118
	.word	16
	.word	-117
	.word	16
	.word	-116
	.word	16
	.word	-115
	.word	16
	.word	-114
	.word	16
	.word	0
	.word	0
	.word	0
	.word	0
	.word	0
	.word	0
	.word	0
	.word	0
	.word	0
	.word	0
	.word	0
	.word	0
	.word	58
	.word	6
	.word	503
	.word	9
	.word	4085
	.word	12
	.word	-113
	.word	16
	.word	-112
	.word	16
	.word	-111
	.word	16
	.word	-110
	.word	16
	.word	-109
	.word	16
	.word	-108
	.word	16
	.word	-107
	.word	16
	.word	0
	.word	0
	.word	0
	.word	0
	.word	0
	.word	0
	.word	0
	.word	0
	.word	0
	.word	0
	.word	0
	.word	0
	.word	59
	.word	6
	.word	1016
	.word	10
	.word	-106
	.word	16
	.word	-105
	.word	16
	.word	-104
	.word	16
	.word	-103
	.word	16
	.word	-102
	.word	16
	.word	-101
	.word	16
	.word	-100
	.word	16
	.word	-99
	.word	16
	.word	0
	.word	0
	.word	0
	.word	0
	.word	0
	.word	0
	.word	0
	.word	0
	.word	0
	.word	0
	.word	0
	.word	0
	.word	122
	.word	7
	.word	2039
	.word	11
	.word	-98
	.word	16
	.word	-97
	.word	16
	.word	-96
	.word	16
	.word	-95
	.word	16
	.word	-94
	.word	16
	.word	-93
	.word	16
	.word	-92
	.word	16
	.word	-91
	.word	16
	.word	0
	.word	0
	.word	0
	.word	0
	.word	0
	.word	0
	.word	0
	.word	0
	.word	0
	.word	0
	.word	0
	.word	0
	.word	123
	.word	7
	.word	4086
	.word	12
	.word	-90
	.word	16
	.word	-89
	.word	16
	.word	-88
	.word	16
	.word	-87
	.word	16
	.word	-86
	.word	16
	.word	-85
	.word	16
	.word	-84
	.word	16
	.word	-83
	.word	16
	.word	0
	.word	0
	.word	0
	.word	0
	.word	0
	.word	0
	.word	0
	.word	0
	.word	0
	.word	0
	.word	0
	.word	0
	.word	250
	.word	8
	.word	4087
	.word	12
	.word	-82
	.word	16
	.word	-81
	.word	16
	.word	-80
	.word	16
	.word	-79
	.word	16
	.word	-78
	.word	16
	.word	-77
	.word	16
	.word	-76
	.word	16
	.word	-75
	.word	16
	.word	0
	.word	0
	.word	0
	.word	0
	.word	0
	.word	0
	.word	0
	.word	0
	.word	0
	.word	0
	.word	0
	.word	0
	.word	504
	.word	9
	.word	32704
	.word	15
	.word	-74
	.word	16
	.word	-73
	.word	16
	.word	-72
	.word	16
	.word	-71
	.word	16
	.word	-70
	.word	16
	.word	-69
	.word	16
	.word	-68
	.word	16
	.word	-67
	.word	16
	.word	0
	.word	0
	.word	0
	.word	0
	.word	0
	.word	0
	.word	0
	.word	0
	.word	0
	.word	0
	.word	0
	.word	0
	.word	505
	.word	9
	.word	-66
	.word	16
	.word	-65
	.word	16
	.word	-64
	.word	16
	.word	-63
	.word	16
	.word	-62
	.word	16
	.word	-61
	.word	16
	.word	-60
	.word	16
	.word	-59
	.word	16
	.word	-58
	.word	16
	.word	0
	.word	0
	.word	0
	.word	0
	.word	0
	.word	0
	.word	0
	.word	0
	.word	0
	.word	0
	.word	0
	.word	0
	.word	506
	.word	9
	.word	-57
	.word	16
	.word	-56
	.word	16
	.word	-55
	.word	16
	.word	-54
	.word	16
	.word	-53
	.word	16
	.word	-52
	.word	16
	.word	-51
	.word	16
	.word	-50
	.word	16
	.word	-49
	.word	16
	.word	0
	.word	0
	.word	0
	.word	0
	.word	0
	.word	0
	.word	0
	.word	0
	.word	0
	.word	0
	.word	0
	.word	0
	.word	1017
	.word	10
	.word	-48
	.word	16
	.word	-47
	.word	16
	.word	-46
	.word	16
	.word	-45
	.word	16
	.word	-44
	.word	16
	.word	-43
	.word	16
	.word	-42
	.word	16
	.word	-41
	.word	16
	.word	-40
	.word	16
	.word	0
	.word	0
	.word	0
	.word	0
	.word	0
	.word	0
	.word	0
	.word	0
	.word	0
	.word	0
	.word	0
	.word	0
	.word	1018
	.word	10
	.word	-39
	.word	16
	.word	-38
	.word	16
	.word	-37
	.word	16
	.word	-36
	.word	16
	.word	-35
	.word	16
	.word	-34
	.word	16
	.word	-33
	.word	16
	.word	-32
	.word	16
	.word	-31
	.word	16
	.word	0
	.word	0
	.word	0
	.word	0
	.word	0
	.word	0
	.word	0
	.word	0
	.word	0
	.word	0
	.word	0
	.word	0
	.word	2040
	.word	11
	.word	-30
	.word	16
	.word	-29
	.word	16
	.word	-28
	.word	16
	.word	-27
	.word	16
	.word	-26
	.word	16
	.word	-25
	.word	16
	.word	-24
	.word	16
	.word	-23
	.word	16
	.word	-22
	.word	16
	.word	0
	.word	0
	.word	0
	.word	0
	.word	0
	.word	0
	.word	0
	.word	0
	.word	0
	.word	0
	.word	0
	.word	0
	.word	-21
	.word	16
	.word	-20
	.word	16
	.word	-19
	.word	16
	.word	-18
	.word	16
	.word	-17
	.word	16
	.word	-16
	.word	16
	.word	-15
	.word	16
	.word	-14
	.word	16
	.word	-13
	.word	16
	.word	-12
	.word	16
	.word	0
	.word	0
	.word	0
	.word	0
	.word	0
	.word	0
	.word	0
	.word	0
	.word	0
	.word	0
	.word	2041
	.word	11
	.word	-11
	.word	16
	.word	-10
	.word	16
	.word	-9
	.word	16
	.word	-8
	.word	16
	.word	-7
	.word	16
	.word	-6
	.word	16
	.word	-5
	.word	16
	.word	-4
	.word	16
	.word	-3
	.word	16
	.word	-2
	.word	16
	.word	0
	.word	0
	.word	0
	.word	0
	.word	0
	.word	0
	.word	0
	.word	0
	.word	0
	.word	0
	.align 32
__ZZL19stbi_write_jpg_coreP19stbi__write_contextiiiPKviE7UVAC_HT:
	.word	0
	.word	2
	.word	1
	.word	2
	.word	4
	.word	3
	.word	10
	.word	4
	.word	24
	.word	5
	.word	25
	.word	5
	.word	56
	.word	6
	.word	120
	.word	7
	.word	500
	.word	9
	.word	1014
	.word	10
	.word	4084
	.word	12
	.word	0
	.word	0
	.word	0
	.word	0
	.word	0
	.word	0
	.word	0
	.word	0
	.word	0
	.word	0
	.word	0
	.word	0
	.word	11
	.word	4
	.word	57
	.word	6
	.word	246
	.word	8
	.word	501
	.word	9
	.word	2038
	.word	11
	.word	4085
	.word	12
	.word	-120
	.word	16
	.word	-119
	.word	16
	.word	-118
	.word	16
	.word	-117
	.word	16
	.word	0
	.word	0
	.word	0
	.word	0
	.word	0
	.word	0
	.word	0
	.word	0
	.word	0
	.word	0
	.word	0
	.word	0
	.word	26
	.word	5
	.word	247
	.word	8
	.word	1015
	.word	10
	.word	4086
	.word	12
	.word	32706
	.word	15
	.word	-116
	.word	16
	.word	-115
	.word	16
	.word	-114
	.word	16
	.word	-113
	.word	16
	.word	-112
	.word	16
	.word	0
	.word	0
	.word	0
	.word	0
	.word	0
	.word	0
	.word	0
	.word	0
	.word	0
	.word	0
	.word	0
	.word	0
	.word	27
	.word	5
	.word	248
	.word	8
	.word	1016
	.word	10
	.word	4087
	.word	12
	.word	-111
	.word	16
	.word	-110
	.word	16
	.word	-109
	.word	16
	.word	-108
	.word	16
	.word	-107
	.word	16
	.word	-106
	.word	16
	.word	0
	.word	0
	.word	0
	.word	0
	.word	0
	.word	0
	.word	0
	.word	0
	.word	0
	.word	0
	.word	0
	.word	0
	.word	58
	.word	6
	.word	502
	.word	9
	.word	-105
	.word	16
	.word	-104
	.word	16
	.word	-103
	.word	16
	.word	-102
	.word	16
	.word	-101
	.word	16
	.word	-100
	.word	16
	.word	-99
	.word	16
	.word	-98
	.word	16
	.word	0
	.word	0
	.word	0
	.word	0
	.word	0
	.word	0
	.word	0
	.word	0
	.word	0
	.word	0
	.word	0
	.word	0
	.word	59
	.word	6
	.word	1017
	.word	10
	.word	-97
	.word	16
	.word	-96
	.word	16
	.word	-95
	.word	16
	.word	-94
	.word	16
	.word	-93
	.word	16
	.word	-92
	.word	16
	.word	-91
	.word	16
	.word	-90
	.word	16
	.word	0
	.word	0
	.word	0
	.word	0
	.word	0
	.word	0
	.word	0
	.word	0
	.word	0
	.word	0
	.word	0
	.word	0
	.word	121
	.word	7
	.word	2039
	.word	11
	.word	-89
	.word	16
	.word	-88
	.word	16
	.word	-87
	.word	16
	.word	-86
	.word	16
	.word	-85
	.word	16
	.word	-84
	.word	16
	.word	-83
	.word	16
	.word	-82
	.word	16
	.word	0
	.word	0
	.word	0
	.word	0
	.word	0
	.word	0
	.word	0
	.word	0
	.word	0
	.word	0
	.word	0
	.word	0
	.word	122
	.word	7
	.word	2040
	.word	11
	.word	-81
	.word	16
	.word	-80
	.word	16
	.word	-79
	.word	16
	.word	-78
	.word	16
	.word	-77
	.word	16
	.word	-76
	.word	16
	.word	-75
	.word	16
	.word	-74
	.word	16
	.word	0
	.word	0
	.word	0
	.word	0
	.word	0
	.word	0
	.word	0
	.word	0
	.word	0
	.word	0
	.word	0
	.word	0
	.word	249
	.word	8
	.word	-73
	.word	16
	.word	-72
	.word	16
	.word	-71
	.word	16
	.word	-70
	.word	16
	.word	-69
	.word	16
	.word	-68
	.word	16
	.word	-67
	.word	16
	.word	-66
	.word	16
	.word	-65
	.word	16
	.word	0
	.word	0
	.word	0
	.word	0
	.word	0
	.word	0
	.word	0
	.word	0
	.word	0
	.word	0
	.word	0
	.word	0
	.word	503
	.word	9
	.word	-64
	.word	16
	.word	-63
	.word	16
	.word	-62
	.word	16
	.word	-61
	.word	16
	.word	-60
	.word	16
	.word	-59
	.word	16
	.word	-58
	.word	16
	.word	-57
	.word	16
	.word	-56
	.word	16
	.word	0
	.word	0
	.word	0
	.word	0
	.word	0
	.word	0
	.word	0
	.word	0
	.word	0
	.word	0
	.word	0
	.word	0
	.word	504
	.word	9
	.word	-55
	.word	16
	.word	-54
	.word	16
	.word	-53
	.word	16
	.word	-52
	.word	16
	.word	-51
	.word	16
	.word	-50
	.word	16
	.word	-49
	.word	16
	.word	-48
	.word	16
	.word	-47
	.word	16
	.word	0
	.word	0
	.word	0
	.word	0
	.word	0
	.word	0
	.word	0
	.word	0
	.word	0
	.word	0
	.word	0
	.word	0
	.word	505
	.word	9
	.word	-46
	.word	16
	.word	-45
	.word	16
	.word	-44
	.word	16
	.word	-43
	.word	16
	.word	-42
	.word	16
	.word	-41
	.word	16
	.word	-40
	.word	16
	.word	-39
	.word	16
	.word	-38
	.word	16
	.word	0
	.word	0
	.word	0
	.word	0
	.word	0
	.word	0
	.word	0
	.word	0
	.word	0
	.word	0
	.word	0
	.word	0
	.word	506
	.word	9
	.word	-37
	.word	16
	.word	-36
	.word	16
	.word	-35
	.word	16
	.word	-34
	.word	16
	.word	-33
	.word	16
	.word	-32
	.word	16
	.word	-31
	.word	16
	.word	-30
	.word	16
	.word	-29
	.word	16
	.word	0
	.word	0
	.word	0
	.word	0
	.word	0
	.word	0
	.word	0
	.word	0
	.word	0
	.word	0
	.word	0
	.word	0
	.word	2041
	.word	11
	.word	-28
	.word	16
	.word	-27
	.word	16
	.word	-26
	.word	16
	.word	-25
	.word	16
	.word	-24
	.word	16
	.word	-23
	.word	16
	.word	-22
	.word	16
	.word	-21
	.word	16
	.word	-20
	.word	16
	.word	0
	.word	0
	.word	0
	.word	0
	.word	0
	.word	0
	.word	0
	.word	0
	.word	0
	.word	0
	.word	0
	.word	0
	.word	16352
	.word	14
	.word	-19
	.word	16
	.word	-18
	.word	16
	.word	-17
	.word	16
	.word	-16
	.word	16
	.word	-15
	.word	16
	.word	-14
	.word	16
	.word	-13
	.word	16
	.word	-12
	.word	16
	.word	-11
	.word	16
	.word	0
	.word	0
	.word	0
	.word	0
	.word	0
	.word	0
	.word	0
	.word	0
	.word	0
	.word	0
	.word	1018
	.word	10
	.word	32707
	.word	15
	.word	-10
	.word	16
	.word	-9
	.word	16
	.word	-8
	.word	16
	.word	-7
	.word	16
	.word	-6
	.word	16
	.word	-5
	.word	16
	.word	-4
	.word	16
	.word	-3
	.word	16
	.word	-2
	.word	16
	.word	0
	.word	0
	.word	0
	.word	0
	.word	0
	.word	0
	.word	0
	.word	0
	.word	0
	.word	0
	.align 32
__ZZL19stbi_write_jpg_coreP19stbi__write_contextiiiPKviE3YQT:
	.long	16
	.long	11
	.long	10
	.long	16
	.long	24
	.long	40
	.long	51
	.long	61
	.long	12
	.long	12
	.long	14
	.long	19
	.long	26
	.long	58
	.long	60
	.long	55
	.long	14
	.long	13
	.long	16
	.long	24
	.long	40
	.long	57
	.long	69
	.long	56
	.long	14
	.long	17
	.long	22
	.long	29
	.long	51
	.long	87
	.long	80
	.long	62
	.long	18
	.long	22
	.long	37
	.long	56
	.long	68
	.long	109
	.long	103
	.long	77
	.long	24
	.long	35
	.long	55
	.long	64
	.long	81
	.long	104
	.long	113
	.long	92
	.long	49
	.long	64
	.long	78
	.long	87
	.long	103
	.long	121
	.long	120
	.long	101
	.long	72
	.long	92
	.long	95
	.long	98
	.long	112
	.long	100
	.long	103
	.long	99
	.align 32
__ZZL19stbi_write_jpg_coreP19stbi__write_contextiiiPKviE4UVQT:
	.long	17
	.long	18
	.long	24
	.long	47
	.long	99
	.long	99
	.long	99
	.long	99
	.long	18
	.long	21
	.long	26
	.long	66
	.long	99
	.long	99
	.long	99
	.long	99
	.long	24
	.long	26
	.long	56
	.long	99
	.long	99
	.long	99
	.long	99
	.long	99
	.long	47
	.long	66
	.long	99
	.long	99
	.long	99
	.long	99
	.long	99
	.long	99
	.long	99
	.long	99
	.long	99
	.long	99
	.long	99
	.long	99
	.long	99
	.long	99
	.long	99
	.long	99
	.long	99
	.long	99
	.long	99
	.long	99
	.long	99
	.long	99
	.long	99
	.long	99
	.long	99
	.long	99
	.long	99
	.long	99
	.long	99
	.long	99
	.long	99
	.long	99
	.long	99
	.long	99
	.long	99
	.long	99
	.long	99
	.long	99
	.align 32
__ZZL19stbi_write_jpg_coreP19stbi__write_contextiiiPKviE4aasf:
	.long	1077216499
	.long	1081808063
	.long	1080853343
	.long	1079302960
	.long	1077216499
	.long	1074674138
	.long	1069805333
	.long	1061668290
	.align 4
__ZZL19stbi_write_jpg_coreP19stbi__write_contextiiiPKviE5head0:
	.byte	-1
	.byte	-40
	.byte	-1
	.byte	-32
	.byte	0
	.byte	16
	.byte	74
	.byte	70
	.byte	73
	.byte	70
	.byte	0
	.byte	1
	.byte	1
	.byte	0
	.byte	0
	.byte	1
	.byte	0
	.byte	1
	.byte	0
	.byte	0
	.byte	-1
	.byte	-37
	.byte	0
	.byte	-124
	.byte	0
	.align 4
__ZZL19stbi_write_jpg_coreP19stbi__write_contextiiiPKviE5head2:
	.byte	-1
	.byte	-38
	.byte	0
	.byte	12
	.byte	3
	.byte	1
	.byte	0
	.byte	2
	.byte	17
	.byte	3
	.byte	17
	.byte	0
	.byte	63
	.byte	0
	.align 4
__ZZL19stbi_write_jpg_coreP19stbi__write_contextiiiPKviE8fillBits:
	.word	127
	.word	7
	.text
	.def	__ZL19stbi_write_jpg_coreP19stbi__write_contextiiiPKvi;	.scl	3;	.type	32;	.endef
__ZL19stbi_write_jpg_coreP19stbi__write_contextiiiPKvi:
LFB1780:
	.loc 5 1368 120
	.cfi_startproc
	pushl	%ebp
	.cfi_def_cfa_offset 8
	.cfi_offset 5, -8
	movl	%esp, %ebp
	.cfi_def_cfa_register 5
	movl	$4472, %eax
	call	___chkstk_ms
	subl	%eax, %esp
	.loc 5 1444 4
	cmpl	$0, 24(%ebp)
	je	L429
	.loc 5 1444 16 discriminator 1
	movl	12(%ebp), %eax
	.loc 5 1444 13 discriminator 1
	testl	%eax, %eax
	je	L429
	.loc 5 1444 26 discriminator 2
	movl	16(%ebp), %eax
	.loc 5 1444 23 discriminator 2
	testl	%eax, %eax
	je	L429
	.loc 5 1444 34 discriminator 3
	cmpl	$4, 20(%ebp)
	jg	L429
	.loc 5 1444 46 discriminator 4
	cmpl	$0, 20(%ebp)
	jg	L430
L429:
	.loc 5 1445 14
	movl	$0, %eax
	jmp	L491
L430:
	.loc 5 1448 22
	cmpl	$0, 28(%ebp)
	je	L432
	.loc 5 1448 22 is_stmt 0 discriminator 1
	movl	28(%ebp), %eax
	jmp	L433
L432:
	.loc 5 1448 22 discriminator 2
	movl	$90, %eax
L433:
	.loc 5 1448 12 is_stmt 1 discriminator 4
	movl	%eax, 28(%ebp)
	.loc 5 1449 30 discriminator 4
	cmpl	$90, 28(%ebp)
	jg	L434
	.loc 5 1449 30 is_stmt 0 discriminator 1
	movl	$1, %eax
	jmp	L435
L434:
	.loc 5 1449 30 discriminator 2
	movl	$0, %eax
L435:
	.loc 5 1449 14 is_stmt 1 discriminator 4
	movl	%eax, -60(%ebp)
	.loc 5 1450 26 discriminator 4
	cmpl	$0, 28(%ebp)
	jle	L436
	.loc 5 1450 26 is_stmt 0 discriminator 1
	movl	$100, %eax
	cmpl	$100, 28(%ebp)
	cmovle	28(%ebp), %eax
	jmp	L437
L436:
	.loc 5 1450 26 discriminator 2
	movl	$1, %eax
L437:
	.loc 5 1450 12 is_stmt 1 discriminator 4
	movl	%eax, 28(%ebp)
	.loc 5 1451 27 discriminator 4
	cmpl	$49, 28(%ebp)
	jg	L438
	.loc 5 1451 27 is_stmt 0 discriminator 1
	movl	$5000, %eax
	cltd
	idivl	28(%ebp)
	jmp	L439
L438:
	.loc 5 1451 50 is_stmt 1 discriminator 2
	movl	$100, %eax
	subl	28(%ebp), %eax
	.loc 5 1451 27 discriminator 2
	addl	%eax, %eax
L439:
	.loc 5 1451 12 discriminator 4
	movl	%eax, 28(%ebp)
LBB76:
	.loc 5 1453 10 discriminator 4
	movl	$0, -20(%ebp)
L445:
	.loc 5 1453 17 discriminator 2
	cmpl	$63, -20(%ebp)
	jg	L440
LBB77:
	.loc 5 1454 29
	movl	-20(%ebp), %eax
	movl	__ZZL19stbi_write_jpg_coreP19stbi__write_contextiiiPKviE3YQT(,%eax,4), %eax
	.loc 5 1454 30
	imull	28(%ebp), %eax
	.loc 5 1454 38
	leal	50(%eax), %ecx
	.loc 5 1454 17
	movl	$1374389535, %edx
	movl	%ecx, %eax
	imull	%edx
	sarl	$5, %edx
	movl	%ecx, %eax
	sarl	$31, %eax
	subl	%eax, %edx
	movl	%edx, %eax
	movl	%eax, -64(%ebp)
	.loc 5 1455 36
	cmpl	$0, -64(%ebp)
	jle	L441
	.loc 5 1455 79 discriminator 1
	movl	$255, %eax
	cmpl	$255, -64(%ebp)
	cmovle	-64(%ebp), %eax
	.loc 5 1455 36 discriminator 1
	movl	%eax, %edx
	jmp	L442
L441:
	.loc 5 1455 36 is_stmt 0 discriminator 2
	movl	$1, %edx
L442:
	.loc 5 1455 33 is_stmt 1 discriminator 4
	movl	-20(%ebp), %eax
	addl	$__ZL17stbiw__jpg_ZigZag, %eax
	movzbl	(%eax), %eax
	movzbl	%al, %eax
	.loc 5 1455 36 discriminator 4
	movb	%dl, -716(%ebp,%eax)
	.loc 5 1456 21 discriminator 4
	movl	-20(%ebp), %eax
	movl	__ZZL19stbi_write_jpg_coreP19stbi__write_contextiiiPKviE4UVQT(,%eax,4), %eax
	.loc 5 1456 22 discriminator 4
	imull	28(%ebp), %eax
	.loc 5 1456 30 discriminator 4
	leal	50(%eax), %ecx
	.loc 5 1456 12 discriminator 4
	movl	$1374389535, %edx
	movl	%ecx, %eax
	imull	%edx
	sarl	$5, %edx
	movl	%ecx, %eax
	sarl	$31, %eax
	subl	%eax, %edx
	movl	%edx, %eax
	movl	%eax, -68(%ebp)
	.loc 5 1457 37 discriminator 4
	cmpl	$0, -68(%ebp)
	jle	L443
	.loc 5 1457 82 discriminator 1
	movl	$255, %eax
	cmpl	$255, -68(%ebp)
	cmovle	-68(%ebp), %eax
	.loc 5 1457 37 discriminator 1
	movl	%eax, %edx
	jmp	L444
L443:
	.loc 5 1457 37 is_stmt 0 discriminator 2
	movl	$1, %edx
L444:
	.loc 5 1457 34 is_stmt 1 discriminator 4
	movl	-20(%ebp), %eax
	addl	$__ZL17stbiw__jpg_ZigZag, %eax
	movzbl	(%eax), %eax
	movzbl	%al, %eax
	.loc 5 1457 37 discriminator 4
	movb	%dl, -780(%ebp,%eax)
LBE77:
	.loc 5 1453 4 discriminator 4
	addl	$1, -20(%ebp)
	jmp	L445
L440:
LBE76:
	.loc 5 1460 12
	movl	$0, -12(%ebp)
	.loc 5 1460 19
	movl	$0, -24(%ebp)
L449:
	.loc 5 1460 28 discriminator 1
	cmpl	$7, -12(%ebp)
	jg	L446
	.loc 5 1461 15
	movl	$0, -16(%ebp)
L448:
	.loc 5 1461 24 discriminator 3
	cmpl	$7, -16(%ebp)
	jg	L447
	.loc 5 1462 56 discriminator 2
	movl	-24(%ebp), %eax
	addl	$__ZL17stbiw__jpg_ZigZag, %eax
	movzbl	(%eax), %eax
	movzbl	%al, %eax
	.loc 5 1462 57 discriminator 2
	movzbl	-716(%ebp,%eax), %eax
	movzbl	%al, %eax
	.loc 5 1462 59 discriminator 2
	movl	%eax, -4412(%ebp)
	fildl	-4412(%ebp)
	.loc 5 1462 69 discriminator 2
	movl	-12(%ebp), %eax
	flds	__ZZL19stbi_write_jpg_coreP19stbi__write_contextiiiPKviE4aasf(,%eax,4)
	.loc 5 1462 59 discriminator 2
	fmulp	%st, %st(1)
	.loc 5 1462 81 discriminator 2
	movl	-16(%ebp), %eax
	flds	__ZZL19stbi_write_jpg_coreP19stbi__write_contextiiiPKviE4aasf(,%eax,4)
	.loc 5 1462 71 discriminator 2
	fmulp	%st, %st(1)
	.loc 5 1462 26 discriminator 2
	fld1
	fdivp	%st, %st(1)
	.loc 5 1462 22 discriminator 2
	movl	-24(%ebp), %eax
	fstps	-396(%ebp,%eax,4)
	.loc 5 1463 56 discriminator 2
	movl	-24(%ebp), %eax
	addl	$__ZL17stbiw__jpg_ZigZag, %eax
	movzbl	(%eax), %eax
	movzbl	%al, %eax
	.loc 5 1463 57 discriminator 2
	movzbl	-780(%ebp,%eax), %eax
	movzbl	%al, %eax
	.loc 5 1463 59 discriminator 2
	movl	%eax, -4412(%ebp)
	fildl	-4412(%ebp)
	.loc 5 1463 69 discriminator 2
	movl	-12(%ebp), %eax
	flds	__ZZL19stbi_write_jpg_coreP19stbi__write_contextiiiPKviE4aasf(,%eax,4)
	.loc 5 1463 59 discriminator 2
	fmulp	%st, %st(1)
	.loc 5 1463 81 discriminator 2
	movl	-16(%ebp), %eax
	flds	__ZZL19stbi_write_jpg_coreP19stbi__write_contextiiiPKviE4aasf(,%eax,4)
	.loc 5 1463 71 discriminator 2
	fmulp	%st, %st(1)
	.loc 5 1463 26 discriminator 2
	fld1
	fdivp	%st, %st(1)
	.loc 5 1463 22 discriminator 2
	movl	-24(%ebp), %eax
	fstps	-652(%ebp,%eax,4)
	.loc 5 1461 7 discriminator 2
	addl	$1, -16(%ebp)
	addl	$1, -24(%ebp)
	jmp	L448
L447:
	.loc 5 1460 4 discriminator 2
	addl	$1, -12(%ebp)
	jmp	L449
L446:
LBB78:
	.loc 5 1471 27
	movl	$0, %ecx
	movl	$24, %eax
	andl	$-4, %eax
	movl	%eax, %edx
	movl	$0, %eax
L450:
	movl	%ecx, -804(%ebp,%eax)
	addl	$4, %eax
	cmpl	%edx, %eax
	jb	L450
	movb	$-1, -804(%ebp)
	movb	$-64, -803(%ebp)
	movb	$17, -801(%ebp)
	movb	$8, -800(%ebp)
	movb	$3, -795(%ebp)
	movb	$1, -794(%ebp)
	movb	$2, -791(%ebp)
	movb	$17, -790(%ebp)
	movb	$1, -789(%ebp)
	movb	$3, -788(%ebp)
	movb	$17, -787(%ebp)
	movb	$1, -786(%ebp)
	movb	$-1, -785(%ebp)
	movb	$-60, -784(%ebp)
	movb	$1, -783(%ebp)
	movb	$-94, -782(%ebp)
	.loc 5 1471 80
	movl	16(%ebp), %eax
	sarl	$8, %eax
	.loc 5 1472 122
	movb	%al, -799(%ebp)
	movl	16(%ebp), %eax
	movb	%al, -798(%ebp)
	.loc 5 1471 126
	movl	12(%ebp), %eax
	sarl	$8, %eax
	.loc 5 1472 122
	movb	%al, -797(%ebp)
	movl	12(%ebp), %eax
	movb	%al, -796(%ebp)
	cmpl	$0, -60(%ebp)
	je	L452
	.loc 5 1472 122 is_stmt 0 discriminator 1
	movl	$34, %eax
	jmp	L453
L452:
	.loc 5 1472 122 discriminator 2
	movl	$17, %eax
L453:
	.loc 5 1472 122 discriminator 4
	movb	%al, -793(%ebp)
	.loc 5 1473 10 is_stmt 1 discriminator 4
	movl	8(%ebp), %eax
	movl	(%eax), %eax
	.loc 5 1473 14 discriminator 4
	movl	8(%ebp), %edx
	movl	4(%edx), %edx
	movl	$25, 8(%esp)
	movl	$__ZZL19stbi_write_jpg_coreP19stbi__write_contextiiiPKviE5head0, 4(%esp)
	movl	%edx, (%esp)
	call	*%eax
LVL16:
	.loc 5 1474 10 discriminator 4
	movl	8(%ebp), %eax
	movl	(%eax), %eax
	.loc 5 1474 14 discriminator 4
	movl	8(%ebp), %edx
	movl	4(%edx), %edx
	movl	$64, 8(%esp)
	leal	-716(%ebp), %ecx
	movl	%ecx, 4(%esp)
	movl	%edx, (%esp)
	call	*%eax
LVL17:
	.loc 5 1475 18 discriminator 4
	movl	$1, 4(%esp)
	movl	8(%ebp), %eax
	movl	%eax, (%esp)
	call	__ZL11stbiw__putcP19stbi__write_contexth
	.loc 5 1476 10 discriminator 4
	movl	8(%ebp), %eax
	movl	(%eax), %eax
	.loc 5 1476 14 discriminator 4
	movl	8(%ebp), %edx
	movl	4(%edx), %edx
	movl	$64, 8(%esp)
	leal	-780(%ebp), %ecx
	movl	%ecx, 4(%esp)
	movl	%edx, (%esp)
	call	*%eax
LVL18:
	.loc 5 1477 10 discriminator 4
	movl	8(%ebp), %eax
	movl	(%eax), %eax
	.loc 5 1477 14 discriminator 4
	movl	8(%ebp), %edx
	movl	4(%edx), %edx
	movl	$24, 8(%esp)
	leal	-804(%ebp), %ecx
	movl	%ecx, 4(%esp)
	movl	%edx, (%esp)
	call	*%eax
LVL19:
	.loc 5 1478 10 discriminator 4
	movl	8(%ebp), %eax
	movl	(%eax), %eax
	.loc 5 1478 14 discriminator 4
	movl	$__ZZL19stbi_write_jpg_coreP19stbi__write_contextiiiPKviE24std_dc_luminance_nrcodes+1, %ecx
	movl	8(%ebp), %edx
	movl	4(%edx), %edx
	movl	$16, 8(%esp)
	movl	%ecx, 4(%esp)
	movl	%edx, (%esp)
	call	*%eax
LVL20:
	.loc 5 1479 10 discriminator 4
	movl	8(%ebp), %eax
	movl	(%eax), %eax
	.loc 5 1479 14 discriminator 4
	movl	8(%ebp), %edx
	movl	4(%edx), %edx
	movl	$12, 8(%esp)
	movl	$__ZZL19stbi_write_jpg_coreP19stbi__write_contextiiiPKviE23std_dc_luminance_values, 4(%esp)
	movl	%edx, (%esp)
	call	*%eax
LVL21:
	.loc 5 1480 18 discriminator 4
	movl	$16, 4(%esp)
	movl	8(%ebp), %eax
	movl	%eax, (%esp)
	call	__ZL11stbiw__putcP19stbi__write_contexth
	.loc 5 1481 10 discriminator 4
	movl	8(%ebp), %eax
	movl	(%eax), %eax
	.loc 5 1481 14 discriminator 4
	movl	$__ZZL19stbi_write_jpg_coreP19stbi__write_contextiiiPKviE24std_ac_luminance_nrcodes+1, %ecx
	movl	8(%ebp), %edx
	movl	4(%edx), %edx
	movl	$16, 8(%esp)
	movl	%ecx, 4(%esp)
	movl	%edx, (%esp)
	call	*%eax
LVL22:
	.loc 5 1482 10 discriminator 4
	movl	8(%ebp), %eax
	movl	(%eax), %eax
	.loc 5 1482 14 discriminator 4
	movl	8(%ebp), %edx
	movl	4(%edx), %edx
	movl	$162, 8(%esp)
	movl	$__ZZL19stbi_write_jpg_coreP19stbi__write_contextiiiPKviE23std_ac_luminance_values, 4(%esp)
	movl	%edx, (%esp)
	call	*%eax
LVL23:
	.loc 5 1483 18 discriminator 4
	movl	$1, 4(%esp)
	movl	8(%ebp), %eax
	movl	%eax, (%esp)
	call	__ZL11stbiw__putcP19stbi__write_contexth
	.loc 5 1484 10 discriminator 4
	movl	8(%ebp), %eax
	movl	(%eax), %eax
	.loc 5 1484 14 discriminator 4
	movl	$__ZZL19stbi_write_jpg_coreP19stbi__write_contextiiiPKviE26std_dc_chrominance_nrcodes+1, %ecx
	movl	8(%ebp), %edx
	movl	4(%edx), %edx
	movl	$16, 8(%esp)
	movl	%ecx, 4(%esp)
	movl	%edx, (%esp)
	call	*%eax
LVL24:
	.loc 5 1485 10 discriminator 4
	movl	8(%ebp), %eax
	movl	(%eax), %eax
	.loc 5 1485 14 discriminator 4
	movl	8(%ebp), %edx
	movl	4(%edx), %edx
	movl	$12, 8(%esp)
	movl	$__ZZL19stbi_write_jpg_coreP19stbi__write_contextiiiPKviE25std_dc_chrominance_values, 4(%esp)
	movl	%edx, (%esp)
	call	*%eax
LVL25:
	.loc 5 1486 18 discriminator 4
	movl	$17, 4(%esp)
	movl	8(%ebp), %eax
	movl	%eax, (%esp)
	call	__ZL11stbiw__putcP19stbi__write_contexth
	.loc 5 1487 10 discriminator 4
	movl	8(%ebp), %eax
	movl	(%eax), %eax
	.loc 5 1487 14 discriminator 4
	movl	$__ZZL19stbi_write_jpg_coreP19stbi__write_contextiiiPKviE26std_ac_chrominance_nrcodes+1, %ecx
	movl	8(%ebp), %edx
	movl	4(%edx), %edx
	movl	$16, 8(%esp)
	movl	%ecx, 4(%esp)
	movl	%edx, (%esp)
	call	*%eax
LVL26:
	.loc 5 1488 10 discriminator 4
	movl	8(%ebp), %eax
	movl	(%eax), %eax
	.loc 5 1488 14 discriminator 4
	movl	8(%ebp), %edx
	movl	4(%edx), %edx
	movl	$162, 8(%esp)
	movl	$__ZZL19stbi_write_jpg_coreP19stbi__write_contextiiiPKviE25std_ac_chrominance_values, 4(%esp)
	movl	%edx, (%esp)
	call	*%eax
LVL27:
	.loc 5 1489 10 discriminator 4
	movl	8(%ebp), %eax
	movl	(%eax), %eax
	.loc 5 1489 14 discriminator 4
	movl	8(%ebp), %edx
	movl	4(%edx), %edx
	movl	$14, 8(%esp)
	movl	$__ZZL19stbi_write_jpg_coreP19stbi__write_contextiiiPKviE5head2, 4(%esp)
	movl	%edx, (%esp)
	call	*%eax
LVL28:
LBE78:
LBB79:
	.loc 5 1495 11 discriminator 4
	movl	$0, -28(%ebp)
	.loc 5 1495 18 discriminator 4
	movl	$0, -32(%ebp)
	.loc 5 1495 25 discriminator 4
	movl	$0, -36(%ebp)
	.loc 5 1496 11 discriminator 4
	movl	$0, -808(%ebp)
	.loc 5 1496 21 discriminator 4
	movl	$0, -812(%ebp)
	.loc 5 1498 27 discriminator 4
	cmpl	$2, 20(%ebp)
	jle	L454
	.loc 5 1498 27 is_stmt 0 discriminator 1
	movl	$1, %eax
	jmp	L455
L454:
	.loc 5 1498 27 discriminator 2
	movl	$0, %eax
L455:
	.loc 5 1498 11 is_stmt 1 discriminator 4
	movl	%eax, -72(%ebp)
	.loc 5 1498 52 discriminator 4
	cmpl	$2, 20(%ebp)
	jle	L456
	.loc 5 1498 52 is_stmt 0 discriminator 5
	movl	$2, %eax
	jmp	L457
L456:
	.loc 5 1498 52 discriminator 6
	movl	$0, %eax
L457:
	.loc 5 1498 36 is_stmt 1 discriminator 8
	movl	%eax, -76(%ebp)
	.loc 5 1499 28 discriminator 8
	movl	24(%ebp), %eax
	movl	%eax, -80(%ebp)
	.loc 5 1500 42 discriminator 8
	movl	-72(%ebp), %edx
	.loc 5 1500 28 discriminator 8
	movl	-80(%ebp), %eax
	addl	%edx, %eax
	movl	%eax, -84(%ebp)
	.loc 5 1501 42 discriminator 8
	movl	-76(%ebp), %edx
	.loc 5 1501 28 discriminator 8
	movl	-80(%ebp), %eax
	addl	%edx, %eax
	movl	%eax, -88(%ebp)
LBB80:
	.loc 5 1503 7 discriminator 8
	cmpl	$0, -60(%ebp)
	je	L458
LBB81:
LBB82:
	.loc 5 1504 16
	movl	$0, -44(%ebp)
L476:
	.loc 5 1504 23 discriminator 1
	movl	16(%ebp), %eax
	cmpl	%eax, -44(%ebp)
	jge	L477
LBB83:
LBB84:
	.loc 5 1505 19
	movl	$0, -40(%ebp)
L475:
	.loc 5 1505 26 discriminator 2
	movl	12(%ebp), %eax
	cmpl	%eax, -40(%ebp)
	jge	L460
LBB85:
LBB86:
	.loc 5 1507 24
	movl	-44(%ebp), %eax
	movl	%eax, -12(%ebp)
	.loc 5 1507 33
	movl	$0, -48(%ebp)
L470:
	.loc 5 1507 42 discriminator 1
	movl	-44(%ebp), %eax
	addl	$15, %eax
	cmpl	%eax, -12(%ebp)
	jg	L461
LBB87:
	.loc 5 1509 42
	movl	16(%ebp), %eax
	.loc 5 1509 52
	cmpl	%eax, -12(%ebp)
	jl	L462
	.loc 5 1509 67 discriminator 1
	movl	16(%ebp), %eax
	.loc 5 1509 52 discriminator 1
	subl	$1, %eax
	jmp	L463
L462:
	.loc 5 1509 52 is_stmt 0 discriminator 2
	movl	-12(%ebp), %eax
L463:
	.loc 5 1509 23 is_stmt 1 discriminator 4
	movl	%eax, -92(%ebp)
	.loc 5 1510 91 discriminator 4
	movl	__ZL30stbi__flip_vertically_on_write, %eax
	.loc 5 1510 64 discriminator 4
	testl	%eax, %eax
	je	L464
	.loc 5 1510 73 discriminator 1
	movl	16(%ebp), %eax
	subl	$1, %eax
	.loc 5 1510 64 discriminator 1
	subl	-92(%ebp), %eax
	jmp	L465
L464:
	.loc 5 1510 64 is_stmt 0 discriminator 2
	movl	-92(%ebp), %eax
L465:
	.loc 5 1510 103 is_stmt 1 discriminator 4
	movl	12(%ebp), %edx
	imull	%edx, %eax
	.loc 5 1510 23 discriminator 4
	movl	20(%ebp), %edx
	imull	%edx, %eax
	movl	%eax, -96(%ebp)
LBB88:
	.loc 5 1511 27 discriminator 4
	movl	-40(%ebp), %eax
	movl	%eax, -16(%ebp)
L469:
	.loc 5 1511 36 discriminator 2
	movl	-40(%ebp), %eax
	addl	$15, %eax
	cmpl	%eax, -16(%ebp)
	jg	L466
LBB89:
	.loc 5 1513 45
	movl	12(%ebp), %eax
	.loc 5 1513 54
	cmpl	%eax, -16(%ebp)
	jl	L467
	.loc 5 1513 68 discriminator 1
	movl	12(%ebp), %eax
	.loc 5 1513 54 discriminator 1
	subl	$1, %eax
	jmp	L468
L467:
	.loc 5 1513 54 is_stmt 0 discriminator 2
	movl	-16(%ebp), %eax
L468:
	.loc 5 1513 72 is_stmt 1 discriminator 4
	imull	20(%ebp), %eax
	movl	%eax, %edx
	.loc 5 1513 26 discriminator 4
	movl	-96(%ebp), %eax
	addl	%edx, %eax
	movl	%eax, -100(%ebp)
	.loc 5 1514 39 discriminator 4
	movl	-100(%ebp), %edx
	movl	-80(%ebp), %eax
	addl	%edx, %eax
	movzbl	(%eax), %eax
	.loc 5 1514 28 discriminator 4
	movzbl	%al, %eax
	movw	%ax, -4412(%ebp)
	filds	-4412(%ebp)
	fstps	-104(%ebp)
	.loc 5 1514 53 discriminator 4
	movl	-100(%ebp), %edx
	movl	-84(%ebp), %eax
	addl	%edx, %eax
	movzbl	(%eax), %eax
	.loc 5 1514 42 discriminator 4
	movzbl	%al, %eax
	movw	%ax, -4412(%ebp)
	filds	-4412(%ebp)
	fstps	-108(%ebp)
	.loc 5 1514 67 discriminator 4
	movl	-100(%ebp), %edx
	movl	-88(%ebp), %eax
	addl	%edx, %eax
	movzbl	(%eax), %eax
	.loc 5 1514 56 discriminator 4
	movzbl	%al, %eax
	movw	%ax, -4412(%ebp)
	filds	-4412(%ebp)
	fstps	-112(%ebp)
	.loc 5 1515 39 discriminator 4
	flds	-104(%ebp)
	flds	LC24
	fmulp	%st, %st(1)
	.loc 5 1515 52 discriminator 4
	flds	-108(%ebp)
	flds	LC25
	fmulp	%st, %st(1)
	.loc 5 1515 42 discriminator 4
	faddp	%st, %st(1)
	.loc 5 1515 65 discriminator 4
	flds	-112(%ebp)
	flds	LC26
	fmulp	%st, %st(1)
	.loc 5 1515 55 discriminator 4
	faddp	%st, %st(1)
	.loc 5 1515 68 discriminator 4
	flds	LC27
	fsubrp	%st, %st(1)
	.loc 5 1515 28 discriminator 4
	movl	-48(%ebp), %eax
	fstps	-3884(%ebp,%eax,4)
	.loc 5 1516 39 discriminator 4
	flds	-104(%ebp)
	flds	LC28
	fmulp	%st, %st(1)
	.loc 5 1516 52 discriminator 4
	flds	-108(%ebp)
	flds	LC29
	fmulp	%st, %st(1)
	.loc 5 1516 42 discriminator 4
	fsubrp	%st, %st(1)
	.loc 5 1516 65 discriminator 4
	flds	-112(%ebp)
	flds	LC22
	fmulp	%st, %st(1)
	.loc 5 1516 55 discriminator 4
	faddp	%st, %st(1)
	.loc 5 1516 28 discriminator 4
	movl	-48(%ebp), %eax
	fstps	-2860(%ebp,%eax,4)
	.loc 5 1517 39 discriminator 4
	flds	-104(%ebp)
	flds	LC22
	fmulp	%st, %st(1)
	.loc 5 1517 52 discriminator 4
	flds	-108(%ebp)
	flds	LC30
	fmulp	%st, %st(1)
	.loc 5 1517 42 discriminator 4
	fsubrp	%st, %st(1)
	.loc 5 1517 65 discriminator 4
	flds	-112(%ebp)
	flds	LC31
	fmulp	%st, %st(1)
	.loc 5 1517 55 discriminator 4
	fsubrp	%st, %st(1)
	.loc 5 1517 28 discriminator 4
	movl	-48(%ebp), %eax
	fstps	-1836(%ebp,%eax,4)
LBE89:
	.loc 5 1511 19 discriminator 4
	addl	$1, -16(%ebp)
	addl	$1, -48(%ebp)
	jmp	L469
L466:
LBE88:
LBE87:
	.loc 5 1507 16 discriminator 2
	addl	$1, -12(%ebp)
	jmp	L470
L461:
LBE86:
	.loc 5 1520 42
	movl	$__ZZL19stbi_write_jpg_coreP19stbi__write_contextiiiPKviE6YAC_HT, 32(%esp)
	movl	$__ZZL19stbi_write_jpg_coreP19stbi__write_contextiiiPKviE6YDC_HT, 28(%esp)
	movl	-28(%ebp), %eax
	movl	%eax, 24(%esp)
	leal	-396(%ebp), %eax
	movl	%eax, 20(%esp)
	movl	$16, 16(%esp)
	leal	-3884(%ebp), %eax
	movl	%eax, 12(%esp)
	leal	-812(%ebp), %eax
	movl	%eax, 8(%esp)
	leal	-808(%ebp), %eax
	movl	%eax, 4(%esp)
	movl	8(%ebp), %eax
	movl	%eax, (%esp)
	call	__ZL20stbiw__jpg_processDUP19stbi__write_contextPiS1_PfiS2_iPA2_KtS5_
	movl	%eax, -28(%ebp)
	.loc 5 1521 42
	leal	-3884(%ebp), %eax
	addl	$32, %eax
	movl	$__ZZL19stbi_write_jpg_coreP19stbi__write_contextiiiPKviE6YAC_HT, 32(%esp)
	movl	$__ZZL19stbi_write_jpg_coreP19stbi__write_contextiiiPKviE6YDC_HT, 28(%esp)
	movl	-28(%ebp), %edx
	movl	%edx, 24(%esp)
	leal	-396(%ebp), %edx
	movl	%edx, 20(%esp)
	movl	$16, 16(%esp)
	movl	%eax, 12(%esp)
	leal	-812(%ebp), %eax
	movl	%eax, 8(%esp)
	leal	-808(%ebp), %eax
	movl	%eax, 4(%esp)
	movl	8(%ebp), %eax
	movl	%eax, (%esp)
	call	__ZL20stbiw__jpg_processDUP19stbi__write_contextPiS1_PfiS2_iPA2_KtS5_
	movl	%eax, -28(%ebp)
	.loc 5 1522 42
	leal	-3884(%ebp), %eax
	addl	$512, %eax
	movl	$__ZZL19stbi_write_jpg_coreP19stbi__write_contextiiiPKviE6YAC_HT, 32(%esp)
	movl	$__ZZL19stbi_write_jpg_coreP19stbi__write_contextiiiPKviE6YDC_HT, 28(%esp)
	movl	-28(%ebp), %edx
	movl	%edx, 24(%esp)
	leal	-396(%ebp), %edx
	movl	%edx, 20(%esp)
	movl	$16, 16(%esp)
	movl	%eax, 12(%esp)
	leal	-812(%ebp), %eax
	movl	%eax, 8(%esp)
	leal	-808(%ebp), %eax
	movl	%eax, 4(%esp)
	movl	8(%ebp), %eax
	movl	%eax, (%esp)
	call	__ZL20stbiw__jpg_processDUP19stbi__write_contextPiS1_PfiS2_iPA2_KtS5_
	movl	%eax, -28(%ebp)
	.loc 5 1523 42
	leal	-3884(%ebp), %eax
	addl	$544, %eax
	movl	$__ZZL19stbi_write_jpg_coreP19stbi__write_contextiiiPKviE6YAC_HT, 32(%esp)
	movl	$__ZZL19stbi_write_jpg_coreP19stbi__write_contextiiiPKviE6YDC_HT, 28(%esp)
	movl	-28(%ebp), %edx
	movl	%edx, 24(%esp)
	leal	-396(%ebp), %edx
	movl	%edx, 20(%esp)
	movl	$16, 16(%esp)
	movl	%eax, 12(%esp)
	leal	-812(%ebp), %eax
	movl	%eax, 8(%esp)
	leal	-808(%ebp), %eax
	movl	%eax, 4(%esp)
	movl	8(%ebp), %eax
	movl	%eax, (%esp)
	call	__ZL20stbiw__jpg_processDUP19stbi__write_contextPiS1_PfiS2_iPA2_KtS5_
	movl	%eax, -28(%ebp)
LBB90:
LBB91:
	.loc 5 1529 26
	movl	$0, -52(%ebp)
	.loc 5 1529 35
	movl	$0, -48(%ebp)
L474:
	.loc 5 1529 43 discriminator 1
	cmpl	$7, -52(%ebp)
	jg	L471
LBB92:
LBB93:
	.loc 5 1530 29
	movl	$0, -56(%ebp)
L473:
	.loc 5 1530 37 discriminator 3
	cmpl	$7, -56(%ebp)
	jg	L472
LBB94:
	.loc 5 1531 38 discriminator 2
	movl	-52(%ebp), %eax
	sall	$4, %eax
	movl	%eax, %edx
	movl	-56(%ebp), %eax
	addl	%edx, %eax
	.loc 5 1531 29 discriminator 2
	addl	%eax, %eax
	movl	%eax, -116(%ebp)
	.loc 5 1532 43 discriminator 2
	movl	-116(%ebp), %eax
	flds	-2860(%ebp,%eax,4)
	.loc 5 1532 50 discriminator 2
	movl	-116(%ebp), %eax
	addl	$1, %eax
	.loc 5 1532 52 discriminator 2
	flds	-2860(%ebp,%eax,4)
	.loc 5 1532 45 discriminator 2
	faddp	%st, %st(1)
	.loc 5 1532 59 discriminator 2
	movl	-116(%ebp), %eax
	addl	$16, %eax
	.loc 5 1532 62 discriminator 2
	flds	-2860(%ebp,%eax,4)
	.loc 5 1532 54 discriminator 2
	faddp	%st, %st(1)
	.loc 5 1532 69 discriminator 2
	movl	-116(%ebp), %eax
	addl	$17, %eax
	.loc 5 1532 72 discriminator 2
	flds	-2860(%ebp,%eax,4)
	.loc 5 1532 64 discriminator 2
	faddp	%st, %st(1)
	.loc 5 1532 75 discriminator 2
	flds	LC32
	fmulp	%st, %st(1)
	.loc 5 1532 35 discriminator 2
	movl	-48(%ebp), %eax
	fstps	-4396(%ebp,%eax,4)
	.loc 5 1533 43 discriminator 2
	movl	-116(%ebp), %eax
	flds	-1836(%ebp,%eax,4)
	.loc 5 1533 50 discriminator 2
	movl	-116(%ebp), %eax
	addl	$1, %eax
	.loc 5 1533 52 discriminator 2
	flds	-1836(%ebp,%eax,4)
	.loc 5 1533 45 discriminator 2
	faddp	%st, %st(1)
	.loc 5 1533 59 discriminator 2
	movl	-116(%ebp), %eax
	addl	$16, %eax
	.loc 5 1533 62 discriminator 2
	flds	-1836(%ebp,%eax,4)
	.loc 5 1533 54 discriminator 2
	faddp	%st, %st(1)
	.loc 5 1533 69 discriminator 2
	movl	-116(%ebp), %eax
	addl	$17, %eax
	.loc 5 1533 72 discriminator 2
	flds	-1836(%ebp,%eax,4)
	.loc 5 1533 64 discriminator 2
	faddp	%st, %st(1)
	.loc 5 1533 75 discriminator 2
	flds	LC32
	fmulp	%st, %st(1)
	.loc 5 1533 35 discriminator 2
	movl	-48(%ebp), %eax
	fstps	-4140(%ebp,%eax,4)
LBE94:
	.loc 5 1530 22 discriminator 2
	addl	$1, -56(%ebp)
	addl	$1, -48(%ebp)
	jmp	L473
L472:
LBE93:
LBE92:
	.loc 5 1529 19 discriminator 2
	addl	$1, -52(%ebp)
	jmp	L474
L471:
LBE91:
	.loc 5 1536 45
	movl	$__ZZL19stbi_write_jpg_coreP19stbi__write_contextiiiPKviE7UVAC_HT, 32(%esp)
	movl	$__ZZL19stbi_write_jpg_coreP19stbi__write_contextiiiPKviE7UVDC_HT, 28(%esp)
	movl	-32(%ebp), %eax
	movl	%eax, 24(%esp)
	leal	-652(%ebp), %eax
	movl	%eax, 20(%esp)
	movl	$8, 16(%esp)
	leal	-4396(%ebp), %eax
	movl	%eax, 12(%esp)
	leal	-812(%ebp), %eax
	movl	%eax, 8(%esp)
	leal	-808(%ebp), %eax
	movl	%eax, 4(%esp)
	movl	8(%ebp), %eax
	movl	%eax, (%esp)
	call	__ZL20stbiw__jpg_processDUP19stbi__write_contextPiS1_PfiS2_iPA2_KtS5_
	movl	%eax, -32(%ebp)
	.loc 5 1537 45
	movl	$__ZZL19stbi_write_jpg_coreP19stbi__write_contextiiiPKviE7UVAC_HT, 32(%esp)
	movl	$__ZZL19stbi_write_jpg_coreP19stbi__write_contextiiiPKviE7UVDC_HT, 28(%esp)
	movl	-36(%ebp), %eax
	movl	%eax, 24(%esp)
	leal	-652(%ebp), %eax
	movl	%eax, 20(%esp)
	movl	$8, 16(%esp)
	leal	-4140(%ebp), %eax
	movl	%eax, 12(%esp)
	leal	-812(%ebp), %eax
	movl	%eax, 8(%esp)
	leal	-808(%ebp), %eax
	movl	%eax, 4(%esp)
	movl	8(%ebp), %eax
	movl	%eax, (%esp)
	call	__ZL20stbiw__jpg_processDUP19stbi__write_contextPiS1_PfiS2_iPA2_KtS5_
	movl	%eax, -36(%ebp)
LBE90:
LBE85:
	.loc 5 1505 37
	addl	$16, -40(%ebp)
	.loc 5 1505 13
	jmp	L475
L460:
LBE84:
LBE83:
	.loc 5 1504 35 discriminator 2
	addl	$16, -44(%ebp)
	.loc 5 1504 10 discriminator 2
	jmp	L476
L458:
LBE82:
LBE81:
LBB95:
LBB96:
	.loc 5 1542 16
	movl	$0, -44(%ebp)
L490:
	.loc 5 1542 23 discriminator 1
	movl	16(%ebp), %eax
	cmpl	%eax, -44(%ebp)
	jge	L477
LBB97:
LBB98:
	.loc 5 1543 19
	movl	$0, -40(%ebp)
L489:
	.loc 5 1543 26 discriminator 2
	movl	12(%ebp), %eax
	cmpl	%eax, -40(%ebp)
	jge	L478
LBB99:
LBB100:
	.loc 5 1545 24
	movl	-44(%ebp), %eax
	movl	%eax, -12(%ebp)
	.loc 5 1545 33
	movl	$0, -48(%ebp)
L488:
	.loc 5 1545 42 discriminator 1
	movl	-44(%ebp), %eax
	addl	$7, %eax
	cmpl	%eax, -12(%ebp)
	jg	L479
LBB101:
	.loc 5 1547 42
	movl	16(%ebp), %eax
	.loc 5 1547 52
	cmpl	%eax, -12(%ebp)
	jl	L480
	.loc 5 1547 67 discriminator 1
	movl	16(%ebp), %eax
	.loc 5 1547 52 discriminator 1
	subl	$1, %eax
	jmp	L481
L480:
	.loc 5 1547 52 is_stmt 0 discriminator 2
	movl	-12(%ebp), %eax
L481:
	.loc 5 1547 23 is_stmt 1 discriminator 4
	movl	%eax, -120(%ebp)
	.loc 5 1548 91 discriminator 4
	movl	__ZL30stbi__flip_vertically_on_write, %eax
	.loc 5 1548 64 discriminator 4
	testl	%eax, %eax
	je	L482
	.loc 5 1548 73 discriminator 1
	movl	16(%ebp), %eax
	subl	$1, %eax
	.loc 5 1548 64 discriminator 1
	subl	-120(%ebp), %eax
	jmp	L483
L482:
	.loc 5 1548 64 is_stmt 0 discriminator 2
	movl	-120(%ebp), %eax
L483:
	.loc 5 1548 103 is_stmt 1 discriminator 4
	movl	12(%ebp), %edx
	imull	%edx, %eax
	.loc 5 1548 23 discriminator 4
	movl	20(%ebp), %edx
	imull	%edx, %eax
	movl	%eax, -124(%ebp)
LBB102:
	.loc 5 1549 27 discriminator 4
	movl	-40(%ebp), %eax
	movl	%eax, -16(%ebp)
L487:
	.loc 5 1549 36 discriminator 2
	movl	-40(%ebp), %eax
	addl	$7, %eax
	cmpl	%eax, -16(%ebp)
	jg	L484
LBB103:
	.loc 5 1551 45
	movl	12(%ebp), %eax
	.loc 5 1551 54
	cmpl	%eax, -16(%ebp)
	jl	L485
	.loc 5 1551 68 discriminator 1
	movl	12(%ebp), %eax
	.loc 5 1551 54 discriminator 1
	subl	$1, %eax
	jmp	L486
L485:
	.loc 5 1551 54 is_stmt 0 discriminator 2
	movl	-16(%ebp), %eax
L486:
	.loc 5 1551 72 is_stmt 1 discriminator 4
	imull	20(%ebp), %eax
	movl	%eax, %edx
	.loc 5 1551 26 discriminator 4
	movl	-124(%ebp), %eax
	addl	%edx, %eax
	movl	%eax, -128(%ebp)
	.loc 5 1552 39 discriminator 4
	movl	-128(%ebp), %edx
	movl	-80(%ebp), %eax
	addl	%edx, %eax
	movzbl	(%eax), %eax
	.loc 5 1552 28 discriminator 4
	movzbl	%al, %eax
	movw	%ax, -4412(%ebp)
	filds	-4412(%ebp)
	fstps	-132(%ebp)
	.loc 5 1552 53 discriminator 4
	movl	-128(%ebp), %edx
	movl	-84(%ebp), %eax
	addl	%edx, %eax
	movzbl	(%eax), %eax
	.loc 5 1552 42 discriminator 4
	movzbl	%al, %eax
	movw	%ax, -4412(%ebp)
	filds	-4412(%ebp)
	fstps	-136(%ebp)
	.loc 5 1552 67 discriminator 4
	movl	-128(%ebp), %edx
	movl	-88(%ebp), %eax
	addl	%edx, %eax
	movzbl	(%eax), %eax
	.loc 5 1552 56 discriminator 4
	movzbl	%al, %eax
	movw	%ax, -4412(%ebp)
	filds	-4412(%ebp)
	fstps	-140(%ebp)
	.loc 5 1553 39 discriminator 4
	flds	-132(%ebp)
	flds	LC24
	fmulp	%st, %st(1)
	.loc 5 1553 52 discriminator 4
	flds	-136(%ebp)
	flds	LC25
	fmulp	%st, %st(1)
	.loc 5 1553 42 discriminator 4
	faddp	%st, %st(1)
	.loc 5 1553 65 discriminator 4
	flds	-140(%ebp)
	flds	LC26
	fmulp	%st, %st(1)
	.loc 5 1553 55 discriminator 4
	faddp	%st, %st(1)
	.loc 5 1553 68 discriminator 4
	flds	LC27
	fsubrp	%st, %st(1)
	.loc 5 1553 28 discriminator 4
	movl	-48(%ebp), %eax
	fstps	-3884(%ebp,%eax,4)
	.loc 5 1554 39 discriminator 4
	flds	-132(%ebp)
	flds	LC28
	fmulp	%st, %st(1)
	.loc 5 1554 52 discriminator 4
	flds	-136(%ebp)
	flds	LC29
	fmulp	%st, %st(1)
	.loc 5 1554 42 discriminator 4
	fsubrp	%st, %st(1)
	.loc 5 1554 65 discriminator 4
	flds	-140(%ebp)
	flds	LC22
	fmulp	%st, %st(1)
	.loc 5 1554 55 discriminator 4
	faddp	%st, %st(1)
	.loc 5 1554 28 discriminator 4
	movl	-48(%ebp), %eax
	fstps	-2860(%ebp,%eax,4)
	.loc 5 1555 39 discriminator 4
	flds	-132(%ebp)
	flds	LC22
	fmulp	%st, %st(1)
	.loc 5 1555 52 discriminator 4
	flds	-136(%ebp)
	flds	LC30
	fmulp	%st, %st(1)
	.loc 5 1555 42 discriminator 4
	fsubrp	%st, %st(1)
	.loc 5 1555 65 discriminator 4
	flds	-140(%ebp)
	flds	LC31
	fmulp	%st, %st(1)
	.loc 5 1555 55 discriminator 4
	fsubrp	%st, %st(1)
	.loc 5 1555 28 discriminator 4
	movl	-48(%ebp), %eax
	fstps	-1836(%ebp,%eax,4)
LBE103:
	.loc 5 1549 19 discriminator 4
	addl	$1, -16(%ebp)
	addl	$1, -48(%ebp)
	jmp	L487
L484:
LBE102:
LBE101:
	.loc 5 1545 16 discriminator 2
	addl	$1, -12(%ebp)
	jmp	L488
L479:
LBE100:
	.loc 5 1559 42
	movl	$__ZZL19stbi_write_jpg_coreP19stbi__write_contextiiiPKviE6YAC_HT, 32(%esp)
	movl	$__ZZL19stbi_write_jpg_coreP19stbi__write_contextiiiPKviE6YDC_HT, 28(%esp)
	movl	-28(%ebp), %eax
	movl	%eax, 24(%esp)
	leal	-396(%ebp), %eax
	movl	%eax, 20(%esp)
	movl	$8, 16(%esp)
	leal	-3884(%ebp), %eax
	movl	%eax, 12(%esp)
	leal	-812(%ebp), %eax
	movl	%eax, 8(%esp)
	leal	-808(%ebp), %eax
	movl	%eax, 4(%esp)
	movl	8(%ebp), %eax
	movl	%eax, (%esp)
	call	__ZL20stbiw__jpg_processDUP19stbi__write_contextPiS1_PfiS2_iPA2_KtS5_
	movl	%eax, -28(%ebp)
	.loc 5 1560 42
	movl	$__ZZL19stbi_write_jpg_coreP19stbi__write_contextiiiPKviE7UVAC_HT, 32(%esp)
	movl	$__ZZL19stbi_write_jpg_coreP19stbi__write_contextiiiPKviE7UVDC_HT, 28(%esp)
	movl	-32(%ebp), %eax
	movl	%eax, 24(%esp)
	leal	-652(%ebp), %eax
	movl	%eax, 20(%esp)
	movl	$8, 16(%esp)
	leal	-2860(%ebp), %eax
	movl	%eax, 12(%esp)
	leal	-812(%ebp), %eax
	movl	%eax, 8(%esp)
	leal	-808(%ebp), %eax
	movl	%eax, 4(%esp)
	movl	8(%ebp), %eax
	movl	%eax, (%esp)
	call	__ZL20stbiw__jpg_processDUP19stbi__write_contextPiS1_PfiS2_iPA2_KtS5_
	movl	%eax, -32(%ebp)
	.loc 5 1561 42
	movl	$__ZZL19stbi_write_jpg_coreP19stbi__write_contextiiiPKviE7UVAC_HT, 32(%esp)
	movl	$__ZZL19stbi_write_jpg_coreP19stbi__write_contextiiiPKviE7UVDC_HT, 28(%esp)
	movl	-36(%ebp), %eax
	movl	%eax, 24(%esp)
	leal	-652(%ebp), %eax
	movl	%eax, 20(%esp)
	movl	$8, 16(%esp)
	leal	-1836(%ebp), %eax
	movl	%eax, 12(%esp)
	leal	-812(%ebp), %eax
	movl	%eax, 8(%esp)
	leal	-808(%ebp), %eax
	movl	%eax, 4(%esp)
	movl	8(%ebp), %eax
	movl	%eax, (%esp)
	call	__ZL20stbiw__jpg_processDUP19stbi__write_contextPiS1_PfiS2_iPA2_KtS5_
	movl	%eax, -36(%ebp)
LBE99:
	.loc 5 1543 37
	addl	$8, -40(%ebp)
	.loc 5 1543 13
	jmp	L489
L478:
LBE98:
LBE97:
	.loc 5 1542 35 discriminator 2
	addl	$8, -44(%ebp)
	.loc 5 1542 10 discriminator 2
	jmp	L490
L477:
LBE96:
LBE95:
LBE80:
	.loc 5 1567 27
	movl	$__ZZL19stbi_write_jpg_coreP19stbi__write_contextiiiPKviE8fillBits, 12(%esp)
	leal	-812(%ebp), %eax
	movl	%eax, 8(%esp)
	leal	-808(%ebp), %eax
	movl	%eax, 4(%esp)
	movl	8(%ebp), %eax
	movl	%eax, (%esp)
	call	__ZL20stbiw__jpg_writeBitsP19stbi__write_contextPiS1_PKt
LBE79:
	.loc 5 1571 15
	movl	$255, 4(%esp)
	movl	8(%ebp), %eax
	movl	%eax, (%esp)
	call	__ZL11stbiw__putcP19stbi__write_contexth
	.loc 5 1572 15
	movl	$217, 4(%esp)
	movl	8(%ebp), %eax
	movl	%eax, (%esp)
	call	__ZL11stbiw__putcP19stbi__write_contexth
	.loc 5 1574 11
	movl	$1, %eax
L491:
	.loc 5 1575 1 discriminator 1
	leave
	.cfi_restore 5
	.cfi_def_cfa 4, 4
	ret
	.cfi_endproc
LFE1780:
	.globl	_stbi_write_jpg_to_func
	.def	_stbi_write_jpg_to_func;	.scl	2;	.type	32;	.endef
_stbi_write_jpg_to_func:
LFB1781:
	.loc 5 1578 1
	.cfi_startproc
	pushl	%ebp
	.cfi_def_cfa_offset 8
	.cfi_offset 5, -8
	movl	%esp, %ebp
	.cfi_def_cfa_register 5
	pushl	%edi
	subl	$116, %esp
	.cfi_offset 7, -12
	.loc 5 1579 24
	leal	-84(%ebp), %edx
	movl	$0, %eax
	movl	$19, %ecx
	movl	%edx, %edi
	rep stosl
	.loc 5 1580 31
	movl	12(%ebp), %eax
	movl	%eax, 8(%esp)
	movl	8(%ebp), %eax
	movl	%eax, 4(%esp)
	leal	-84(%ebp), %eax
	movl	%eax, (%esp)
	call	__ZL27stbi__start_write_callbacksP19stbi__write_contextPFvPvS1_iES1_
	.loc 5 1581 30
	movl	32(%ebp), %eax
	movl	%eax, 20(%esp)
	movl	28(%ebp), %eax
	movl	%eax, 16(%esp)
	movl	24(%ebp), %eax
	movl	%eax, 12(%esp)
	movl	20(%ebp), %eax
	movl	%eax, 8(%esp)
	movl	16(%ebp), %eax
	movl	%eax, 4(%esp)
	leal	-84(%ebp), %eax
	movl	%eax, (%esp)
	call	__ZL19stbi_write_jpg_coreP19stbi__write_contextiiiPKvi
	.loc 5 1581 69
	nop
	.loc 5 1582 1
	addl	$116, %esp
	popl	%edi
	.cfi_restore 7
	popl	%ebp
	.cfi_restore 5
	.cfi_def_cfa 4, 4
	ret
	.cfi_endproc
LFE1781:
	.globl	_stbi_write_jpg
	.def	_stbi_write_jpg;	.scl	2;	.type	32;	.endef
_stbi_write_jpg:
LFB1782:
	.loc 5 1587 1
	.cfi_startproc
	pushl	%ebp
	.cfi_def_cfa_offset 8
	.cfi_offset 5, -8
	movl	%esp, %ebp
	.cfi_def_cfa_register 5
	pushl	%edi
	subl	$116, %esp
	.cfi_offset 7, -12
	.loc 5 1588 24
	leal	-88(%ebp), %edx
	movl	$0, %eax
	movl	$19, %ecx
	movl	%edx, %edi
	rep stosl
LBB104:
	.loc 5 1589 30
	movl	8(%ebp), %eax
	movl	%eax, 4(%esp)
	leal	-88(%ebp), %eax
	movl	%eax, (%esp)
	call	__ZL22stbi__start_write_fileP19stbi__write_contextPKc
	.loc 5 1589 43
	testl	%eax, %eax
	setne	%al
	.loc 5 1589 4
	testb	%al, %al
	je	L495
LBB105:
	.loc 5 1590 34
	movl	28(%ebp), %eax
	movl	%eax, 20(%esp)
	movl	24(%ebp), %eax
	movl	%eax, 16(%esp)
	movl	20(%ebp), %eax
	movl	%eax, 12(%esp)
	movl	16(%ebp), %eax
	movl	%eax, 8(%esp)
	movl	12(%ebp), %eax
	movl	%eax, 4(%esp)
	leal	-88(%ebp), %eax
	movl	%eax, (%esp)
	call	__ZL19stbi_write_jpg_coreP19stbi__write_contextiiiPKvi
	movl	%eax, -12(%ebp)
	.loc 5 1591 27
	leal	-88(%ebp), %eax
	movl	%eax, (%esp)
	call	__ZL20stbi__end_write_fileP19stbi__write_context
	.loc 5 1592 14
	movl	-12(%ebp), %eax
	jmp	L497
L495:
LBE105:
	.loc 5 1594 14
	movl	$0, %eax
L497:
LBE104:
	.loc 5 1595 1 discriminator 1
	addl	$116, %esp
	popl	%edi
	.cfi_restore 7
	popl	%ebp
	.cfi_restore 5
	.cfi_def_cfa 4, 4
	ret
	.cfi_endproc
LFE1782:
	.def	__ZL15stbi__start_memP13stbi__contextPKhi;	.scl	3;	.type	32;	.endef
__ZL15stbi__start_memP13stbi__contextPKhi:
LFB1783:
	.file 6 "stb_image.h"
	.loc 6 791 1
	.cfi_startproc
	pushl	%ebp
	.cfi_def_cfa_offset 8
	.cfi_offset 5, -8
	movl	%esp, %ebp
	.cfi_def_cfa_register 5
	.loc 6 792 15
	movl	8(%ebp), %eax
	movl	$0, 16(%eax)
	.loc 6 793 27
	movl	8(%ebp), %eax
	movl	$0, 32(%eax)
	.loc 6 794 29
	movl	8(%ebp), %eax
	movl	$0, 168(%eax)
	.loc 6 795 43
	movl	8(%ebp), %eax
	movl	12(%ebp), %edx
	movl	%edx, 180(%eax)
	.loc 6 795 23
	movl	8(%ebp), %eax
	movl	180(%eax), %edx
	.loc 6 795 18
	movl	8(%ebp), %eax
	movl	%edx, 172(%eax)
	.loc 6 796 71
	movl	16(%ebp), %edx
	movl	12(%ebp), %eax
	addl	%eax, %edx
	.loc 6 796 51
	movl	8(%ebp), %eax
	movl	%edx, 184(%eax)
	.loc 6 796 27
	movl	8(%ebp), %eax
	movl	184(%eax), %edx
	.loc 6 796 22
	movl	8(%ebp), %eax
	movl	%edx, 176(%eax)
	.loc 6 797 1
	nop
	popl	%ebp
	.cfi_restore 5
	.cfi_def_cfa 4, 4
	ret
	.cfi_endproc
LFE1783:
	.def	__ZL21stbi__start_callbacksP13stbi__contextP17stbi_io_callbacksPv;	.scl	3;	.type	32;	.endef
__ZL21stbi__start_callbacksP13stbi__contextP17stbi_io_callbacksPv:
LFB1784:
	.loc 6 801 1
	.cfi_startproc
	pushl	%ebp
	.cfi_def_cfa_offset 8
	.cfi_offset 5, -8
	movl	%esp, %ebp
	.cfi_def_cfa_register 5
	subl	$24, %esp
	.loc 6 802 10
	movl	8(%ebp), %eax
	movl	12(%ebp), %edx
	movl	(%edx), %ecx
	movl	%ecx, 16(%eax)
	movl	4(%edx), %ecx
	movl	%ecx, 20(%eax)
	movl	8(%edx), %edx
	movl	%edx, 24(%eax)
	.loc 6 803 20
	movl	8(%ebp), %eax
	movl	16(%ebp), %edx
	movl	%edx, 28(%eax)
	.loc 6 804 14
	movl	8(%ebp), %eax
	movl	$128, 36(%eax)
	.loc 6 805 27
	movl	8(%ebp), %eax
	movl	$1, 32(%eax)
	.loc 6 806 29
	movl	8(%ebp), %eax
	movl	$0, 168(%eax)
	.loc 6 807 48
	movl	8(%ebp), %eax
	leal	40(%eax), %edx
	.loc 6 807 43
	movl	8(%ebp), %eax
	movl	%edx, 180(%eax)
	.loc 6 807 23
	movl	8(%ebp), %eax
	movl	180(%eax), %edx
	.loc 6 807 18
	movl	8(%ebp), %eax
	movl	%edx, 172(%eax)
	.loc 6 808 23
	movl	8(%ebp), %eax
	movl	%eax, (%esp)
	call	__ZL19stbi__refill_bufferP13stbi__context
	.loc 6 809 36
	movl	8(%ebp), %eax
	movl	176(%eax), %edx
	.loc 6 809 31
	movl	8(%ebp), %eax
	movl	%edx, 184(%eax)
	.loc 6 810 1
	nop
	leave
	.cfi_restore 5
	.cfi_def_cfa 4, 4
	ret
	.cfi_endproc
LFE1784:
	.def	__ZL16stbi__stdio_readPvPci;	.scl	3;	.type	32;	.endef
__ZL16stbi__stdio_readPvPci:
LFB1785:
	.loc 6 815 1
	.cfi_startproc
	pushl	%ebp
	.cfi_def_cfa_offset 8
	.cfi_offset 5, -8
	movl	%esp, %ebp
	.cfi_def_cfa_register 5
	subl	$24, %esp
	.loc 6 816 22
	movl	16(%ebp), %eax
	movl	8(%ebp), %edx
	movl	%edx, 12(%esp)
	movl	%eax, 8(%esp)
	movl	$1, 4(%esp)
	movl	12(%ebp), %eax
	movl	%eax, (%esp)
	call	_fread
	.loc 6 817 1
	leave
	.cfi_restore 5
	.cfi_def_cfa 4, 4
	ret
	.cfi_endproc
LFE1785:
	.def	__ZL16stbi__stdio_skipPvi;	.scl	3;	.type	32;	.endef
__ZL16stbi__stdio_skipPvi:
LFB1786:
	.loc 6 820 1
	.cfi_startproc
	pushl	%ebp
	.cfi_def_cfa_offset 8
	.cfi_offset 5, -8
	movl	%esp, %ebp
	.cfi_def_cfa_register 5
	subl	$40, %esp
	.loc 6 822 9
	movl	$1, 8(%esp)
	movl	12(%ebp), %eax
	movl	%eax, 4(%esp)
	movl	8(%ebp), %eax
	movl	%eax, (%esp)
	call	_fseek
	.loc 6 823 14
	movl	8(%ebp), %eax
	movl	%eax, (%esp)
	call	_fgetc
	movl	%eax, -12(%ebp)
	.loc 6 824 4
	cmpl	$-1, -12(%ebp)
	je	L504
	.loc 6 825 13
	movl	8(%ebp), %eax
	movl	%eax, 4(%esp)
	movl	-12(%ebp), %eax
	movl	%eax, (%esp)
	call	_ungetc
L504:
	.loc 6 827 1
	nop
	leave
	.cfi_restore 5
	.cfi_def_cfa 4, 4
	ret
	.cfi_endproc
LFE1786:
	.def	__ZL15stbi__stdio_eofPv;	.scl	3;	.type	32;	.endef
__ZL15stbi__stdio_eofPv:
LFB1787:
	.loc 6 830 1
	.cfi_startproc
	pushl	%ebp
	.cfi_def_cfa_offset 8
	.cfi_offset 5, -8
	movl	%esp, %ebp
	.cfi_def_cfa_register 5
	subl	$24, %esp
	.loc 6 831 15
	movl	8(%ebp), %eax
	movl	%eax, (%esp)
	call	_feof
	.loc 6 831 30
	testl	%eax, %eax
	jne	L506
	.loc 6 831 39 discriminator 2
	movl	8(%ebp), %eax
	movl	%eax, (%esp)
	call	_ferror
	.loc 6 831 30 discriminator 2
	testl	%eax, %eax
	je	L507
L506:
	.loc 6 831 30 is_stmt 0 discriminator 3
	movl	$1, %eax
	jmp	L508
L507:
	.loc 6 831 30 discriminator 4
	movl	$0, %eax
L508:
	.loc 6 831 53 is_stmt 1 discriminator 6
	movzbl	%al, %eax
	.loc 6 832 1 discriminator 6
	leave
	.cfi_restore 5
	.cfi_def_cfa 4, 4
	ret
	.cfi_endproc
LFE1787:
	.data
	.align 4
__ZL21stbi__stdio_callbacks:
	.long	__ZL16stbi__stdio_readPvPci
	.long	__ZL16stbi__stdio_skipPvi
	.long	__ZL15stbi__stdio_eofPv
	.text
	.def	__ZL16stbi__start_fileP13stbi__contextP6_iobuf;	.scl	3;	.type	32;	.endef
__ZL16stbi__start_fileP13stbi__contextP6_iobuf:
LFB1788:
	.loc 6 842 1
	.cfi_startproc
	pushl	%ebp
	.cfi_def_cfa_offset 8
	.cfi_offset 5, -8
	movl	%esp, %ebp
	.cfi_def_cfa_register 5
	subl	$24, %esp
	.loc 6 843 25
	movl	12(%ebp), %eax
	movl	%eax, 8(%esp)
	movl	$__ZL21stbi__stdio_callbacks, 4(%esp)
	movl	8(%ebp), %eax
	movl	%eax, (%esp)
	call	__ZL21stbi__start_callbacksP13stbi__contextP17stbi_io_callbacksPv
	.loc 6 844 1
	nop
	leave
	.cfi_restore 5
	.cfi_def_cfa 4, 4
	ret
	.cfi_endproc
LFE1788:
	.def	__ZL12stbi__rewindP13stbi__context;	.scl	3;	.type	32;	.endef
__ZL12stbi__rewindP13stbi__context:
LFB1789:
	.loc 6 851 1
	.cfi_startproc
	pushl	%ebp
	.cfi_def_cfa_offset 8
	.cfi_offset 5, -8
	movl	%esp, %ebp
	.cfi_def_cfa_register 5
	.loc 6 855 23
	movl	8(%ebp), %eax
	movl	180(%eax), %edx
	.loc 6 855 18
	movl	8(%ebp), %eax
	movl	%edx, 172(%eax)
	.loc 6 856 27
	movl	8(%ebp), %eax
	movl	184(%eax), %edx
	.loc 6 856 22
	movl	8(%ebp), %eax
	movl	%edx, 176(%eax)
	.loc 6 857 1
	nop
	popl	%ebp
	.cfi_restore 5
	.cfi_def_cfa 4, 4
	ret
	.cfi_endproc
LFE1789:
	.globl	_stbi_failure_reason
	.def	_stbi_failure_reason;	.scl	2;	.type	32;	.endef
_stbi_failure_reason:
LFB1790:
	.loc 6 936 1
	.cfi_startproc
	pushl	%ebp
	.cfi_def_cfa_offset 8
	.cfi_offset 5, -8
	movl	%esp, %ebp
	.cfi_def_cfa_register 5
	subl	$24, %esp
	.loc 6 937 11
	movl	$___emutls_v._ZL22stbi__g_failure_reason, (%esp)
	call	___emutls_get_address
	movl	(%eax), %eax
	.loc 6 938 1
	leave
	.cfi_restore 5
	.cfi_def_cfa 4, 4
	ret
	.cfi_endproc
LFE1790:
	.def	__ZL9stbi__errPKc;	.scl	3;	.type	32;	.endef
__ZL9stbi__errPKc:
LFB1791:
	.loc 6 942 1
	.cfi_startproc
	pushl	%ebp
	.cfi_def_cfa_offset 8
	.cfi_offset 5, -8
	movl	%esp, %ebp
	.cfi_def_cfa_register 5
	subl	$24, %esp
	.loc 6 943 27
	movl	$___emutls_v._ZL22stbi__g_failure_reason, (%esp)
	call	___emutls_get_address
	movl	%eax, %edx
	movl	8(%ebp), %eax
	movl	%eax, (%edx)
	.loc 6 944 11
	movl	$0, %eax
	.loc 6 945 1
	leave
	.cfi_restore 5
	.cfi_def_cfa 4, 4
	ret
	.cfi_endproc
LFE1791:
	.def	__ZL12stbi__mallocj;	.scl	3;	.type	32;	.endef
__ZL12stbi__mallocj:
LFB1792:
	.loc 6 949 1
	.cfi_startproc
	pushl	%ebp
	.cfi_def_cfa_offset 8
	.cfi_offset 5, -8
	movl	%esp, %ebp
	.cfi_def_cfa_register 5
	subl	$24, %esp
	.loc 6 950 12
	movl	8(%ebp), %eax
	movl	%eax, (%esp)
	call	_malloc
	.loc 6 951 1
	leave
	.cfi_restore 5
	.cfi_def_cfa 4, 4
	ret
	.cfi_endproc
LFE1792:
	.def	__ZL20stbi__addsizes_validii;	.scl	3;	.type	32;	.endef
__ZL20stbi__addsizes_validii:
LFB1793:
	.loc 6 966 1
	.cfi_startproc
	pushl	%ebp
	.cfi_def_cfa_offset 8
	.cfi_offset 5, -8
	movl	%esp, %ebp
	.cfi_def_cfa_register 5
	.loc 6 967 4
	cmpl	$0, 12(%ebp)
	jns	L519
	.loc 6 967 22 discriminator 1
	movl	$0, %eax
	jmp	L520
L519:
	.loc 6 972 24
	movl	$2147483647, %eax
	subl	12(%ebp), %eax
	.loc 6 972 13
	cmpl	%eax, 8(%ebp)
	setle	%al
	.loc 6 972 26
	movzbl	%al, %eax
L520:
	.loc 6 973 1
	popl	%ebp
	.cfi_restore 5
	.cfi_def_cfa 4, 4
	ret
	.cfi_endproc
LFE1793:
	.def	__ZL21stbi__mul2sizes_validii;	.scl	3;	.type	32;	.endef
__ZL21stbi__mul2sizes_validii:
LFB1794:
	.loc 6 978 1
	.cfi_startproc
	pushl	%ebp
	.cfi_def_cfa_offset 8
	.cfi_offset 5, -8
	movl	%esp, %ebp
	.cfi_def_cfa_register 5
	.loc 6 979 4
	cmpl	$0, 8(%ebp)
	js	L522
	.loc 6 979 14 discriminator 2
	cmpl	$0, 12(%ebp)
	jns	L523
L522:
	.loc 6 979 31 discriminator 3
	movl	$0, %eax
	jmp	L524
L523:
	.loc 6 980 4
	cmpl	$0, 12(%ebp)
	jne	L525
	.loc 6 980 23 discriminator 1
	movl	$1, %eax
	jmp	L524
L525:
	.loc 6 982 23
	movl	$2147483647, %eax
	cltd
	idivl	12(%ebp)
	.loc 6 982 13
	cmpl	%eax, 8(%ebp)
	setle	%al
	.loc 6 982 24
	movzbl	%al, %eax
L524:
	.loc 6 983 1
	popl	%ebp
	.cfi_restore 5
	.cfi_def_cfa 4, 4
	ret
	.cfi_endproc
LFE1794:
	.def	__ZL21stbi__mad2sizes_validiii;	.scl	3;	.type	32;	.endef
__ZL21stbi__mad2sizes_validiii:
LFB1795:
	.loc 6 988 1
	.cfi_startproc
	pushl	%ebp
	.cfi_def_cfa_offset 8
	.cfi_offset 5, -8
	movl	%esp, %ebp
	.cfi_def_cfa_register 5
	subl	$24, %esp
	.loc 6 989 32
	movl	12(%ebp), %eax
	movl	%eax, 4(%esp)
	movl	8(%ebp), %eax
	movl	%eax, (%esp)
	call	__ZL21stbi__mul2sizes_validii
	.loc 6 989 39
	testl	%eax, %eax
	je	L527
	.loc 6 989 62 discriminator 1
	movl	8(%ebp), %eax
	imull	12(%ebp), %eax
	movl	16(%ebp), %edx
	movl	%edx, 4(%esp)
	movl	%eax, (%esp)
	call	__ZL20stbi__addsizes_validii
	.loc 6 989 39 discriminator 1
	testl	%eax, %eax
	je	L527
	.loc 6 989 39 is_stmt 0 discriminator 3
	movl	$1, %eax
	jmp	L528
L527:
	.loc 6 989 39 discriminator 4
	movl	$0, %eax
L528:
	.loc 6 989 71 is_stmt 1 discriminator 6
	movzbl	%al, %eax
	.loc 6 990 1 discriminator 6
	leave
	.cfi_restore 5
	.cfi_def_cfa 4, 4
	ret
	.cfi_endproc
LFE1795:
	.def	__ZL21stbi__mad3sizes_validiiii;	.scl	3;	.type	32;	.endef
__ZL21stbi__mad3sizes_validiiii:
LFB1796:
	.loc 6 995 1
	.cfi_startproc
	pushl	%ebp
	.cfi_def_cfa_offset 8
	.cfi_offset 5, -8
	movl	%esp, %ebp
	.cfi_def_cfa_register 5
	subl	$24, %esp
	.loc 6 996 32
	movl	12(%ebp), %eax
	movl	%eax, 4(%esp)
	movl	8(%ebp), %eax
	movl	%eax, (%esp)
	call	__ZL21stbi__mul2sizes_validii
	.loc 6 996 72
	testl	%eax, %eax
	je	L531
	.loc 6 996 63 discriminator 1
	movl	8(%ebp), %eax
	imull	12(%ebp), %eax
	movl	16(%ebp), %edx
	movl	%edx, 4(%esp)
	movl	%eax, (%esp)
	call	__ZL21stbi__mul2sizes_validii
	.loc 6 996 39 discriminator 1
	testl	%eax, %eax
	je	L531
	.loc 6 997 29 discriminator 3
	movl	8(%ebp), %eax
	imull	12(%ebp), %eax
	.loc 6 997 27 discriminator 3
	imull	16(%ebp), %eax
	movl	20(%ebp), %edx
	movl	%edx, 4(%esp)
	movl	%eax, (%esp)
	call	__ZL20stbi__addsizes_validii
	.loc 6 996 72 discriminator 3
	testl	%eax, %eax
	je	L531
	.loc 6 996 72 is_stmt 0 discriminator 5
	movl	$1, %eax
	jmp	L532
L531:
	.loc 6 996 72 discriminator 6
	movl	$0, %eax
L532:
	.loc 6 997 38 is_stmt 1
	movzbl	%al, %eax
	.loc 6 998 1
	leave
	.cfi_restore 5
	.cfi_def_cfa 4, 4
	ret
	.cfi_endproc
LFE1796:
	.def	__ZL21stbi__mad4sizes_validiiiii;	.scl	3;	.type	32;	.endef
__ZL21stbi__mad4sizes_validiiiii:
LFB1797:
	.loc 6 1003 1
	.cfi_startproc
	pushl	%ebp
	.cfi_def_cfa_offset 8
	.cfi_offset 5, -8
	movl	%esp, %ebp
	.cfi_def_cfa_register 5
	subl	$24, %esp
	.loc 6 1004 32
	movl	12(%ebp), %eax
	movl	%eax, 4(%esp)
	movl	8(%ebp), %eax
	movl	%eax, (%esp)
	call	__ZL21stbi__mul2sizes_validii
	.loc 6 1005 39
	testl	%eax, %eax
	je	L535
	.loc 6 1004 63
	movl	8(%ebp), %eax
	imull	12(%ebp), %eax
	movl	16(%ebp), %edx
	movl	%edx, 4(%esp)
	movl	%eax, (%esp)
	call	__ZL21stbi__mul2sizes_validii
	.loc 6 1004 39
	testl	%eax, %eax
	je	L535
	.loc 6 1005 30 discriminator 1
	movl	8(%ebp), %eax
	imull	12(%ebp), %eax
	.loc 6 1005 28 discriminator 1
	imull	16(%ebp), %eax
	movl	20(%ebp), %edx
	movl	%edx, 4(%esp)
	movl	%eax, (%esp)
	call	__ZL21stbi__mul2sizes_validii
	.loc 6 1004 72 discriminator 1
	testl	%eax, %eax
	je	L535
	.loc 6 1005 64 discriminator 3
	movl	8(%ebp), %eax
	imull	12(%ebp), %eax
	.loc 6 1005 66 discriminator 3
	imull	16(%ebp), %eax
	.loc 6 1005 62 discriminator 3
	imull	20(%ebp), %eax
	movl	24(%ebp), %edx
	movl	%edx, 4(%esp)
	movl	%eax, (%esp)
	call	__ZL20stbi__addsizes_validii
	.loc 6 1005 39 discriminator 3
	testl	%eax, %eax
	je	L535
	.loc 6 1005 39 is_stmt 0 discriminator 2
	movl	$1, %eax
	jmp	L536
L535:
	.loc 6 1005 39 discriminator 1
	movl	$0, %eax
L536:
	.loc 6 1005 75 is_stmt 1 discriminator 5
	movzbl	%al, %eax
	.loc 6 1006 1 discriminator 5
	leave
	.cfi_restore 5
	.cfi_def_cfa 4, 4
	ret
	.cfi_endproc
LFE1797:
	.def	__ZL17stbi__malloc_mad2iii;	.scl	3;	.type	32;	.endef
__ZL17stbi__malloc_mad2iii:
LFB1798:
	.loc 6 1012 1
	.cfi_startproc
	pushl	%ebp
	.cfi_def_cfa_offset 8
	.cfi_offset 5, -8
	movl	%esp, %ebp
	.cfi_def_cfa_register 5
	subl	$24, %esp
	.loc 6 1013 30
	movl	16(%ebp), %eax
	movl	%eax, 8(%esp)
	movl	12(%ebp), %eax
	movl	%eax, 4(%esp)
	movl	8(%ebp), %eax
	movl	%eax, (%esp)
	call	__ZL21stbi__mad2sizes_validiii
	.loc 6 1013 8
	testl	%eax, %eax
	sete	%al
	.loc 6 1013 4
	testb	%al, %al
	je	L539
	.loc 6 1013 50 discriminator 1
	movl	$0, %eax
	jmp	L540
L539:
	.loc 6 1014 25
	movl	8(%ebp), %eax
	imull	12(%ebp), %eax
	movl	%eax, %edx
	.loc 6 1014 28
	movl	16(%ebp), %eax
	addl	%edx, %eax
	.loc 6 1014 23
	movl	%eax, (%esp)
	call	__ZL12stbi__mallocj
	.loc 6 1014 33
	nop
L540:
	.loc 6 1015 1
	leave
	.cfi_restore 5
	.cfi_def_cfa 4, 4
	ret
	.cfi_endproc
LFE1798:
	.def	__ZL17stbi__malloc_mad3iiii;	.scl	3;	.type	32;	.endef
__ZL17stbi__malloc_mad3iiii:
LFB1799:
	.loc 6 1019 1
	.cfi_startproc
	pushl	%ebp
	.cfi_def_cfa_offset 8
	.cfi_offset 5, -8
	movl	%esp, %ebp
	.cfi_def_cfa_register 5
	subl	$24, %esp
	.loc 6 1020 30
	movl	20(%ebp), %eax
	movl	%eax, 12(%esp)
	movl	16(%ebp), %eax
	movl	%eax, 8(%esp)
	movl	12(%ebp), %eax
	movl	%eax, 4(%esp)
	movl	8(%ebp), %eax
	movl	%eax, (%esp)
	call	__ZL21stbi__mad3sizes_validiiii
	.loc 6 1020 8
	testl	%eax, %eax
	sete	%al
	.loc 6 1020 4
	testb	%al, %al
	je	L542
	.loc 6 1020 53 discriminator 1
	movl	$0, %eax
	jmp	L543
L542:
	.loc 6 1021 25
	movl	8(%ebp), %eax
	imull	12(%ebp), %eax
	.loc 6 1021 27
	imull	16(%ebp), %eax
	movl	%eax, %edx
	.loc 6 1021 30
	movl	20(%ebp), %eax
	addl	%edx, %eax
	.loc 6 1021 23
	movl	%eax, (%esp)
	call	__ZL12stbi__mallocj
	.loc 6 1021 35
	nop
L543:
	.loc 6 1022 1
	leave
	.cfi_restore 5
	.cfi_def_cfa 4, 4
	ret
	.cfi_endproc
LFE1799:
	.def	__ZL17stbi__malloc_mad4iiiii;	.scl	3;	.type	32;	.endef
__ZL17stbi__malloc_mad4iiiii:
LFB1800:
	.loc 6 1026 1
	.cfi_startproc
	pushl	%ebp
	.cfi_def_cfa_offset 8
	.cfi_offset 5, -8
	movl	%esp, %ebp
	.cfi_def_cfa_register 5
	subl	$40, %esp
	.loc 6 1027 30
	movl	24(%ebp), %eax
	movl	%eax, 16(%esp)
	movl	20(%ebp), %eax
	movl	%eax, 12(%esp)
	movl	16(%ebp), %eax
	movl	%eax, 8(%esp)
	movl	12(%ebp), %eax
	movl	%eax, 4(%esp)
	movl	8(%ebp), %eax
	movl	%eax, (%esp)
	call	__ZL21stbi__mad4sizes_validiiiii
	.loc 6 1027 8
	testl	%eax, %eax
	sete	%al
	.loc 6 1027 4
	testb	%al, %al
	je	L545
	.loc 6 1027 56 discriminator 1
	movl	$0, %eax
	jmp	L546
L545:
	.loc 6 1028 25
	movl	8(%ebp), %eax
	imull	12(%ebp), %eax
	.loc 6 1028 27
	imull	16(%ebp), %eax
	.loc 6 1028 29
	imull	20(%ebp), %eax
	movl	%eax, %edx
	.loc 6 1028 32
	movl	24(%ebp), %eax
	addl	%edx, %eax
	.loc 6 1028 23
	movl	%eax, (%esp)
	call	__ZL12stbi__mallocj
	.loc 6 1028 37
	nop
L546:
	.loc 6 1029 1
	leave
	.cfi_restore 5
	.cfi_def_cfa 4, 4
	ret
	.cfi_endproc
LFE1800:
	.globl	_stbi_image_free
	.def	_stbi_image_free;	.scl	2;	.type	32;	.endef
_stbi_image_free:
LFB1801:
	.loc 6 1048 1
	.cfi_startproc
	pushl	%ebp
	.cfi_def_cfa_offset 8
	.cfi_offset 5, -8
	movl	%esp, %ebp
	.cfi_def_cfa_register 5
	subl	$24, %esp
	.loc 6 1049 4
	movl	8(%ebp), %eax
	movl	%eax, (%esp)
	call	_free
	.loc 6 1050 1
	nop
	leave
	.cfi_restore 5
	.cfi_def_cfa 4, 4
	ret
	.cfi_endproc
LFE1801:
.lcomm __ZL36stbi__vertically_flip_on_load_global,4,4
	.globl	_stbi_set_flip_vertically_on_load
	.def	_stbi_set_flip_vertically_on_load;	.scl	2;	.type	32;	.endef
_stbi_set_flip_vertically_on_load:
LFB1802:
	.loc 6 1063 1
	.cfi_startproc
	pushl	%ebp
	.cfi_def_cfa_offset 8
	.cfi_offset 5, -8
	movl	%esp, %ebp
	.cfi_def_cfa_register 5
	.loc 6 1064 41
	movl	8(%ebp), %eax
	movl	%eax, __ZL36stbi__vertically_flip_on_load_global
	.loc 6 1065 1
	nop
	popl	%ebp
	.cfi_restore 5
	.cfi_def_cfa 4, 4
	ret
	.cfi_endproc
LFE1802:
	.globl	_stbi_set_flip_vertically_on_load_thread
	.def	_stbi_set_flip_vertically_on_load_thread;	.scl	2;	.type	32;	.endef
_stbi_set_flip_vertically_on_load_thread:
LFB1803:
	.loc 6 1073 1
	.cfi_startproc
	pushl	%ebp
	.cfi_def_cfa_offset 8
	.cfi_offset 5, -8
	movl	%esp, %ebp
	.cfi_def_cfa_register 5
	subl	$24, %esp
	.loc 6 1074 40
	movl	$___emutls_v._ZL35stbi__vertically_flip_on_load_local, (%esp)
	call	___emutls_get_address
	movl	%eax, %edx
	movl	8(%ebp), %eax
	movl	%eax, (%edx)
	.loc 6 1075 38
	movl	$___emutls_v._ZL33stbi__vertically_flip_on_load_set, (%esp)
	call	___emutls_get_address
	movl	$1, (%eax)
	.loc 6 1076 1
	nop
	leave
	.cfi_restore 5
	.cfi_def_cfa 4, 4
	ret
	.cfi_endproc
LFE1803:
	.section .rdata,"dr"
LC33:
	.ascii "unknown image type\0"
	.text
	.def	__ZL15stbi__load_mainP13stbi__contextPiS1_S1_iP17stbi__result_infoi;	.scl	3;	.type	32;	.endef
__ZL15stbi__load_mainP13stbi__contextPiS1_S1_iP17stbi__result_infoi:
LFB1804:
	.loc 6 1084 1
	.cfi_startproc
	pushl	%ebp
	.cfi_def_cfa_offset 8
	.cfi_offset 5, -8
	movl	%esp, %ebp
	.cfi_def_cfa_register 5
	subl	$56, %esp
	.loc 6 1085 10
	movl	$12, 8(%esp)
	movl	$0, 4(%esp)
	movl	28(%ebp), %eax
	movl	%eax, (%esp)
	call	_memset
	.loc 6 1086 25
	movl	28(%ebp), %eax
	movl	$8, (%eax)
	.loc 6 1087 22
	movl	28(%ebp), %eax
	movl	$0, 8(%eax)
	.loc 6 1088 21
	movl	28(%ebp), %eax
	movl	$0, 4(%eax)
	.loc 6 1091 23
	movl	8(%ebp), %eax
	movl	%eax, (%esp)
	call	__ZL15stbi__jpeg_testP13stbi__context
	.loc 6 1091 26
	testl	%eax, %eax
	setne	%al
	.loc 6 1091 4
	testb	%al, %al
	je	L551
	.loc 6 1091 50 discriminator 1
	movl	28(%ebp), %eax
	movl	%eax, 20(%esp)
	movl	24(%ebp), %eax
	movl	%eax, 16(%esp)
	movl	20(%ebp), %eax
	movl	%eax, 12(%esp)
	movl	16(%ebp), %eax
	movl	%eax, 8(%esp)
	movl	12(%ebp), %eax
	movl	%eax, 4(%esp)
	movl	8(%ebp), %eax
	movl	%eax, (%esp)
	call	__ZL15stbi__jpeg_loadP13stbi__contextPiS1_S1_iP17stbi__result_info
	.loc 6 1091 74 discriminator 1
	jmp	L552
L551:
	.loc 6 1094 22
	movl	8(%ebp), %eax
	movl	%eax, (%esp)
	call	__ZL14stbi__png_testP13stbi__context
	.loc 6 1094 25
	testl	%eax, %eax
	setne	%al
	.loc 6 1094 4
	testb	%al, %al
	je	L553
	.loc 6 1094 49 discriminator 1
	movl	28(%ebp), %eax
	movl	%eax, 20(%esp)
	movl	24(%ebp), %eax
	movl	%eax, 16(%esp)
	movl	20(%ebp), %eax
	movl	%eax, 12(%esp)
	movl	16(%ebp), %eax
	movl	%eax, 8(%esp)
	movl	12(%ebp), %eax
	movl	%eax, 4(%esp)
	movl	8(%ebp), %eax
	movl	%eax, (%esp)
	call	__ZL14stbi__png_loadP13stbi__contextPiS1_S1_iP17stbi__result_info
	.loc 6 1094 73 discriminator 1
	jmp	L552
L553:
	.loc 6 1097 22
	movl	8(%ebp), %eax
	movl	%eax, (%esp)
	call	__ZL14stbi__bmp_testP13stbi__context
	.loc 6 1097 25
	testl	%eax, %eax
	setne	%al
	.loc 6 1097 4
	testb	%al, %al
	je	L554
	.loc 6 1097 49 discriminator 1
	movl	28(%ebp), %eax
	movl	%eax, 20(%esp)
	movl	24(%ebp), %eax
	movl	%eax, 16(%esp)
	movl	20(%ebp), %eax
	movl	%eax, 12(%esp)
	movl	16(%ebp), %eax
	movl	%eax, 8(%esp)
	movl	12(%ebp), %eax
	movl	%eax, 4(%esp)
	movl	8(%ebp), %eax
	movl	%eax, (%esp)
	call	__ZL14stbi__bmp_loadP13stbi__contextPiS1_S1_iP17stbi__result_info
	.loc 6 1097 73 discriminator 1
	jmp	L552
L554:
	.loc 6 1100 22
	movl	8(%ebp), %eax
	movl	%eax, (%esp)
	call	__ZL14stbi__gif_testP13stbi__context
	.loc 6 1100 25
	testl	%eax, %eax
	setne	%al
	.loc 6 1100 4
	testb	%al, %al
	je	L555
	.loc 6 1100 49 discriminator 1
	movl	28(%ebp), %eax
	movl	%eax, 20(%esp)
	movl	24(%ebp), %eax
	movl	%eax, 16(%esp)
	movl	20(%ebp), %eax
	movl	%eax, 12(%esp)
	movl	16(%ebp), %eax
	movl	%eax, 8(%esp)
	movl	12(%ebp), %eax
	movl	%eax, 4(%esp)
	movl	8(%ebp), %eax
	movl	%eax, (%esp)
	call	__ZL14stbi__gif_loadP13stbi__contextPiS1_S1_iP17stbi__result_info
	.loc 6 1100 73 discriminator 1
	jmp	L552
L555:
	.loc 6 1103 22
	movl	8(%ebp), %eax
	movl	%eax, (%esp)
	call	__ZL14stbi__psd_testP13stbi__context
	.loc 6 1103 25
	testl	%eax, %eax
	setne	%al
	.loc 6 1103 4
	testb	%al, %al
	je	L556
	.loc 6 1103 49 discriminator 1
	movl	32(%ebp), %eax
	movl	%eax, 24(%esp)
	movl	28(%ebp), %eax
	movl	%eax, 20(%esp)
	movl	24(%ebp), %eax
	movl	%eax, 16(%esp)
	movl	20(%ebp), %eax
	movl	%eax, 12(%esp)
	movl	16(%ebp), %eax
	movl	%eax, 8(%esp)
	movl	12(%ebp), %eax
	movl	%eax, 4(%esp)
	movl	8(%ebp), %eax
	movl	%eax, (%esp)
	call	__ZL14stbi__psd_loadP13stbi__contextPiS1_S1_iP17stbi__result_infoi
	.loc 6 1103 78 discriminator 1
	jmp	L552
L556:
	.loc 6 1108 22
	movl	8(%ebp), %eax
	movl	%eax, (%esp)
	call	__ZL14stbi__pic_testP13stbi__context
	.loc 6 1108 25
	testl	%eax, %eax
	setne	%al
	.loc 6 1108 4
	testb	%al, %al
	je	L557
	.loc 6 1108 49 discriminator 1
	movl	28(%ebp), %eax
	movl	%eax, 20(%esp)
	movl	24(%ebp), %eax
	movl	%eax, 16(%esp)
	movl	20(%ebp), %eax
	movl	%eax, 12(%esp)
	movl	16(%ebp), %eax
	movl	%eax, 8(%esp)
	movl	12(%ebp), %eax
	movl	%eax, 4(%esp)
	movl	8(%ebp), %eax
	movl	%eax, (%esp)
	call	__ZL14stbi__pic_loadP13stbi__contextPiS1_S1_iP17stbi__result_info
	.loc 6 1108 73 discriminator 1
	jmp	L552
L557:
	.loc 6 1111 22
	movl	8(%ebp), %eax
	movl	%eax, (%esp)
	call	__ZL14stbi__pnm_testP13stbi__context
	.loc 6 1111 25
	testl	%eax, %eax
	setne	%al
	.loc 6 1111 4
	testb	%al, %al
	je	L558
	.loc 6 1111 49 discriminator 1
	movl	28(%ebp), %eax
	movl	%eax, 20(%esp)
	movl	24(%ebp), %eax
	movl	%eax, 16(%esp)
	movl	20(%ebp), %eax
	movl	%eax, 12(%esp)
	movl	16(%ebp), %eax
	movl	%eax, 8(%esp)
	movl	12(%ebp), %eax
	movl	%eax, 4(%esp)
	movl	8(%ebp), %eax
	movl	%eax, (%esp)
	call	__ZL14stbi__pnm_loadP13stbi__contextPiS1_S1_iP17stbi__result_info
	.loc 6 1111 73 discriminator 1
	jmp	L552
L558:
LBB106:
	.loc 6 1115 22
	movl	8(%ebp), %eax
	movl	%eax, (%esp)
	call	__ZL14stbi__hdr_testP13stbi__context
	.loc 6 1115 25
	testl	%eax, %eax
	setne	%al
	.loc 6 1115 4
	testb	%al, %al
	je	L559
LBB107:
	.loc 6 1116 34
	movl	28(%ebp), %eax
	movl	%eax, 20(%esp)
	movl	24(%ebp), %eax
	movl	%eax, 16(%esp)
	movl	20(%ebp), %eax
	movl	%eax, 12(%esp)
	movl	16(%ebp), %eax
	movl	%eax, 8(%esp)
	movl	12(%ebp), %eax
	movl	%eax, 4(%esp)
	movl	8(%ebp), %eax
	movl	%eax, (%esp)
	call	__ZL14stbi__hdr_loadP13stbi__contextPiS1_S1_iP17stbi__result_info
	movl	%eax, -12(%ebp)
	.loc 6 1117 30
	cmpl	$0, 24(%ebp)
	jne	L560
	.loc 6 1117 30 is_stmt 0 discriminator 1
	movl	20(%ebp), %eax
	movl	(%eax), %eax
	jmp	L561
L560:
	.loc 6 1117 30 discriminator 2
	movl	24(%ebp), %eax
L561:
	.loc 6 1117 30 discriminator 4
	movl	16(%ebp), %edx
	movl	(%edx), %ecx
	movl	12(%ebp), %edx
	movl	(%edx), %edx
	movl	%eax, 12(%esp)
	movl	%ecx, 8(%esp)
	movl	%edx, 4(%esp)
	movl	-12(%ebp), %eax
	movl	%eax, (%esp)
	call	__ZL16stbi__hdr_to_ldrPfiii
	.loc 6 1117 71 is_stmt 1 discriminator 4
	jmp	L552
L559:
LBE107:
LBE106:
	.loc 6 1123 22
	movl	8(%ebp), %eax
	movl	%eax, (%esp)
	call	__ZL14stbi__tga_testP13stbi__context
	.loc 6 1123 25
	testl	%eax, %eax
	setne	%al
	.loc 6 1123 4
	testb	%al, %al
	je	L562
	.loc 6 1124 28
	movl	28(%ebp), %eax
	movl	%eax, 20(%esp)
	movl	24(%ebp), %eax
	movl	%eax, 16(%esp)
	movl	20(%ebp), %eax
	movl	%eax, 12(%esp)
	movl	16(%ebp), %eax
	movl	%eax, 8(%esp)
	movl	12(%ebp), %eax
	movl	%eax, 4(%esp)
	movl	8(%ebp), %eax
	movl	%eax, (%esp)
	call	__ZL14stbi__tga_loadP13stbi__contextPiS1_S1_iP17stbi__result_info
	.loc 6 1124 52
	jmp	L552
L562:
	.loc 6 1127 11
	movl	$LC33, (%esp)
	call	__ZL9stbi__errPKc
	movl	$0, %eax
L552:
	.loc 6 1128 1
	leave
	.cfi_restore 5
	.cfi_def_cfa 4, 4
	ret
	.cfi_endproc
LFE1804:
	.section .rdata,"dr"
LC34:
	.ascii "outofmem\0"
	.text
	.def	__ZL21stbi__convert_16_to_8Ptiii;	.scl	3;	.type	32;	.endef
__ZL21stbi__convert_16_to_8Ptiii:
LFB1805:
	.loc 6 1131 1
	.cfi_startproc
	pushl	%ebp
	.cfi_def_cfa_offset 8
	.cfi_offset 5, -8
	movl	%esp, %ebp
	.cfi_def_cfa_register 5
	subl	$40, %esp
	.loc 6 1133 20
	movl	12(%ebp), %eax
	imull	16(%ebp), %eax
	.loc 6 1133 8
	movl	20(%ebp), %edx
	imull	%edx, %eax
	movl	%eax, -16(%ebp)
	.loc 6 1136 38
	movl	-16(%ebp), %eax
	movl	%eax, (%esp)
	call	__ZL12stbi__mallocj
	movl	%eax, -20(%ebp)
	.loc 6 1137 4
	cmpl	$0, -20(%ebp)
	jne	L564
	.loc 6 1137 32 discriminator 1
	movl	$LC34, (%esp)
	call	__ZL9stbi__errPKc
	movl	$0, %eax
	jmp	L565
L564:
	.loc 6 1139 11
	movl	$0, -12(%ebp)
L567:
	.loc 6 1139 18 discriminator 3
	movl	-12(%ebp), %eax
	cmpl	-16(%ebp), %eax
	jge	L566
	.loc 6 1140 37 discriminator 2
	movl	-12(%ebp), %eax
	leal	(%eax,%eax), %edx
	movl	8(%ebp), %eax
	addl	%edx, %eax
	movzwl	(%eax), %eax
	.loc 6 1140 45 discriminator 2
	shrw	$8, %ax
	movl	%eax, %ecx
	.loc 6 1140 16 discriminator 2
	movl	-12(%ebp), %edx
	movl	-20(%ebp), %eax
	addl	%edx, %eax
	.loc 6 1140 18 discriminator 2
	movl	%ecx, %edx
	movb	%dl, (%eax)
	.loc 6 1139 4 discriminator 2
	addl	$1, -12(%ebp)
	jmp	L567
L566:
	.loc 6 1142 4
	movl	8(%ebp), %eax
	movl	%eax, (%esp)
	call	_free
	.loc 6 1143 11
	movl	-20(%ebp), %eax
L565:
	.loc 6 1144 1
	leave
	.cfi_restore 5
	.cfi_def_cfa 4, 4
	ret
	.cfi_endproc
LFE1805:
	.def	__ZL21stbi__convert_8_to_16Phiii;	.scl	3;	.type	32;	.endef
__ZL21stbi__convert_8_to_16Phiii:
LFB1806:
	.loc 6 1147 1
	.cfi_startproc
	pushl	%ebp
	.cfi_def_cfa_offset 8
	.cfi_offset 5, -8
	movl	%esp, %ebp
	.cfi_def_cfa_register 5
	pushl	%ebx
	subl	$36, %esp
	.cfi_offset 3, -12
	.loc 6 1149 20
	movl	12(%ebp), %eax
	imull	16(%ebp), %eax
	.loc 6 1149 8
	movl	20(%ebp), %edx
	imull	%edx, %eax
	movl	%eax, -16(%ebp)
	.loc 6 1152 52
	movl	-16(%ebp), %eax
	addl	%eax, %eax
	.loc 6 1152 44
	movl	%eax, (%esp)
	call	__ZL12stbi__mallocj
	movl	%eax, -20(%ebp)
	.loc 6 1153 4
	cmpl	$0, -20(%ebp)
	jne	L569
	.loc 6 1153 50 discriminator 1
	movl	$LC34, (%esp)
	call	__ZL9stbi__errPKc
	movl	$0, %eax
	jmp	L570
L569:
	.loc 6 1155 11
	movl	$0, -12(%ebp)
L572:
	.loc 6 1155 18 discriminator 3
	movl	-12(%ebp), %eax
	cmpl	-16(%ebp), %eax
	jge	L571
	.loc 6 1156 43 discriminator 2
	movl	-12(%ebp), %edx
	movl	8(%ebp), %eax
	addl	%edx, %eax
	movzbl	(%eax), %eax
	movzbl	%al, %eax
	.loc 6 1156 45 discriminator 2
	sall	$8, %eax
	movl	%eax, %ecx
	.loc 6 1156 59 discriminator 2
	movl	-12(%ebp), %edx
	movl	8(%ebp), %eax
	addl	%edx, %eax
	movzbl	(%eax), %eax
	movzbl	%al, %edx
	.loc 6 1156 17 discriminator 2
	movl	-12(%ebp), %eax
	leal	(%eax,%eax), %ebx
	movl	-20(%ebp), %eax
	addl	%ebx, %eax
	.loc 6 1156 51 discriminator 2
	addl	%ecx, %edx
	.loc 6 1156 19 discriminator 2
	movw	%dx, (%eax)
	.loc 6 1155 4 discriminator 2
	addl	$1, -12(%ebp)
	jmp	L572
L571:
	.loc 6 1158 4
	movl	8(%ebp), %eax
	movl	%eax, (%esp)
	call	_free
	.loc 6 1159 11
	movl	-20(%ebp), %eax
L570:
	.loc 6 1160 1
	addl	$36, %esp
	popl	%ebx
	.cfi_restore 3
	popl	%ebp
	.cfi_restore 5
	.cfi_def_cfa 4, 4
	ret
	.cfi_endproc
LFE1806:
	.def	__ZL19stbi__vertical_flipPviii;	.scl	3;	.type	32;	.endef
__ZL19stbi__vertical_flipPviii:
LFB1807:
	.loc 6 1163 1
	.cfi_startproc
	pushl	%ebp
	.cfi_def_cfa_offset 8
	.cfi_offset 5, -8
	movl	%esp, %ebp
	.cfi_def_cfa_register 5
	subl	$2104, %esp
	.loc 6 1165 27
	movl	12(%ebp), %edx
	.loc 6 1165 37
	movl	20(%ebp), %eax
	.loc 6 1165 11
	imull	%edx, %eax
	movl	%eax, -28(%ebp)
	.loc 6 1167 13
	movl	8(%ebp), %eax
	movl	%eax, -32(%ebp)
LBB108:
	.loc 6 1169 13
	movl	$0, -12(%ebp)
L577:
	.loc 6 1169 26 discriminator 1
	movl	16(%ebp), %eax
	sarl	%eax
	.loc 6 1169 22 discriminator 1
	cmpl	%eax, -12(%ebp)
	jge	L578
LBB109:
	.loc 6 1170 34
	movl	-12(%ebp), %eax
	imull	-28(%ebp), %eax
	movl	%eax, %edx
	.loc 6 1170 16
	movl	-32(%ebp), %eax
	addl	%edx, %eax
	movl	%eax, -16(%ebp)
	.loc 6 1171 34
	movl	16(%ebp), %eax
	subl	-12(%ebp), %eax
	.loc 6 1171 40
	subl	$1, %eax
	.loc 6 1171 44
	imull	-28(%ebp), %eax
	movl	%eax, %edx
	.loc 6 1171 16
	movl	-32(%ebp), %eax
	addl	%edx, %eax
	movl	%eax, -20(%ebp)
	.loc 6 1173 14
	movl	-28(%ebp), %eax
	movl	%eax, -24(%ebp)
L576:
	.loc 6 1174 14
	cmpl	$0, -24(%ebp)
	je	L575
LBB110:
	.loc 6 1175 17
	movl	$2048, %eax
	cmpl	$2048, -24(%ebp)
	cmovbe	-24(%ebp), %eax
	movl	%eax, -36(%ebp)
	.loc 6 1176 16
	movl	-36(%ebp), %eax
	movl	%eax, 8(%esp)
	movl	-16(%ebp), %eax
	movl	%eax, 4(%esp)
	leal	-2084(%ebp), %eax
	movl	%eax, (%esp)
	call	_memcpy
	.loc 6 1177 16
	movl	-36(%ebp), %eax
	movl	%eax, 8(%esp)
	movl	-20(%ebp), %eax
	movl	%eax, 4(%esp)
	movl	-16(%ebp), %eax
	movl	%eax, (%esp)
	call	_memcpy
	.loc 6 1178 16
	movl	-36(%ebp), %eax
	movl	%eax, 8(%esp)
	leal	-2084(%ebp), %eax
	movl	%eax, 4(%esp)
	movl	-20(%ebp), %eax
	movl	%eax, (%esp)
	call	_memcpy
	.loc 6 1179 15
	movl	-36(%ebp), %eax
	addl	%eax, -16(%ebp)
	.loc 6 1180 15
	movl	-36(%ebp), %eax
	addl	%eax, -20(%ebp)
	.loc 6 1181 21
	movl	-36(%ebp), %eax
	subl	%eax, -24(%ebp)
LBE110:
	.loc 6 1174 7
	jmp	L576
L575:
LBE109:
	.loc 6 1169 4 discriminator 2
	addl	$1, -12(%ebp)
	jmp	L577
L578:
LBE108:
	.loc 6 1184 1
	nop
	leave
	.cfi_restore 5
	.cfi_def_cfa 4, 4
	ret
	.cfi_endproc
LFE1807:
	.def	__ZL26stbi__vertical_flip_slicesPviiii;	.scl	3;	.type	32;	.endef
__ZL26stbi__vertical_flip_slicesPviiii:
LFB1808:
	.loc 6 1188 1
	.cfi_startproc
	pushl	%ebp
	.cfi_def_cfa_offset 8
	.cfi_offset 5, -8
	movl	%esp, %ebp
	.cfi_def_cfa_register 5
	subl	$40, %esp
	.loc 6 1190 23
	movl	12(%ebp), %eax
	imull	16(%ebp), %eax
	.loc 6 1190 8
	movl	24(%ebp), %edx
	imull	%edx, %eax
	movl	%eax, -20(%ebp)
	.loc 6 1192 13
	movl	8(%ebp), %eax
	movl	%eax, -16(%ebp)
	.loc 6 1193 15
	movl	$0, -12(%ebp)
L581:
	.loc 6 1193 26 discriminator 3
	movl	-12(%ebp), %eax
	cmpl	20(%ebp), %eax
	jge	L582
	.loc 6 1194 26 discriminator 2
	movl	24(%ebp), %eax
	movl	%eax, 12(%esp)
	movl	16(%ebp), %eax
	movl	%eax, 8(%esp)
	movl	12(%ebp), %eax
	movl	%eax, 4(%esp)
	movl	-16(%ebp), %eax
	movl	%eax, (%esp)
	call	__ZL19stbi__vertical_flipPviii
	.loc 6 1195 13 discriminator 2
	movl	-20(%ebp), %eax
	addl	%eax, -16(%ebp)
	.loc 6 1193 4 discriminator 2
	addl	$1, -12(%ebp)
	jmp	L581
L582:
	.loc 6 1197 1
	nop
	leave
	.cfi_restore 5
	.cfi_def_cfa 4, 4
	ret
	.cfi_endproc
LFE1808:
	.section .rdata,"dr"
LC35:
	.ascii "stb_image.h\0"
	.align 4
LC36:
	.ascii "ri.bits_per_channel == 8 || ri.bits_per_channel == 16\0"
	.text
	.def	__ZL31stbi__load_and_postprocess_8bitP13stbi__contextPiS1_S1_i;	.scl	3;	.type	32;	.endef
__ZL31stbi__load_and_postprocess_8bitP13stbi__contextPiS1_S1_i:
LFB1809:
	.loc 6 1201 1
	.cfi_startproc
	pushl	%ebp
	.cfi_def_cfa_offset 8
	.cfi_offset 5, -8
	movl	%esp, %ebp
	.cfi_def_cfa_register 5
	subl	$72, %esp
	.loc 6 1203 34
	movl	$8, 24(%esp)
	leal	-28(%ebp), %eax
	movl	%eax, 20(%esp)
	movl	24(%ebp), %eax
	movl	%eax, 16(%esp)
	movl	20(%ebp), %eax
	movl	%eax, 12(%esp)
	movl	16(%ebp), %eax
	movl	%eax, 8(%esp)
	movl	12(%ebp), %eax
	movl	%eax, 4(%esp)
	movl	8(%ebp), %eax
	movl	%eax, (%esp)
	call	__ZL15stbi__load_mainP13stbi__contextPiS1_S1_iP17stbi__result_infoi
	movl	%eax, -12(%ebp)
	.loc 6 1205 4
	cmpl	$0, -12(%ebp)
	jne	L584
	.loc 6 1206 14
	movl	$0, %eax
	jmp	L597
L584:
	.loc 6 1209 4
	movl	-28(%ebp), %eax
	cmpl	$8, %eax
	je	L598
	.loc 6 1209 4 is_stmt 0 discriminator 2
	movl	-28(%ebp), %eax
	cmpl	$16, %eax
	je	L598
	.loc 6 1209 4 discriminator 4
	movl	$1209, 8(%esp)
	movl	$LC35, 4(%esp)
	movl	$LC36, (%esp)
	call	__assert
	jmp	L588
L598:
	.loc 6 1209 4
	nop
L588:
	.loc 6 1211 11 is_stmt 1
	movl	-28(%ebp), %eax
	.loc 6 1211 4
	cmpl	$8, %eax
	je	L589
	.loc 6 1212 37
	cmpl	$0, 24(%ebp)
	jne	L590
	.loc 6 1212 37 is_stmt 0 discriminator 1
	movl	20(%ebp), %eax
	movl	(%eax), %eax
	jmp	L591
L590:
	.loc 6 1212 37 discriminator 2
	movl	24(%ebp), %eax
L591:
	.loc 6 1212 37 discriminator 4
	movl	16(%ebp), %edx
	movl	(%edx), %ecx
	movl	12(%ebp), %edx
	movl	(%edx), %edx
	movl	%eax, 12(%esp)
	movl	%ecx, 8(%esp)
	movl	%edx, 4(%esp)
	movl	-12(%ebp), %eax
	movl	%eax, (%esp)
	call	__ZL21stbi__convert_16_to_8Ptiii
	movl	%eax, -12(%ebp)
	.loc 6 1213 27 is_stmt 1 discriminator 4
	movl	$8, -28(%ebp)
L589:
LBB111:
	.loc 6 1218 8
	movl	$___emutls_v._ZL33stbi__vertically_flip_on_load_set, (%esp)
	call	___emutls_get_address
	movl	(%eax), %eax
	.loc 6 1218 37
	testl	%eax, %eax
	je	L592
	.loc 6 1218 37 is_stmt 0 discriminator 1
	movl	$___emutls_v._ZL35stbi__vertically_flip_on_load_local, (%esp)
	call	___emutls_get_address
	movl	(%eax), %eax
	testl	%eax, %eax
	setne	%al
	jmp	L593
L592:
	.loc 6 1218 37 discriminator 2
	movl	__ZL36stbi__vertically_flip_on_load_global, %eax
	testl	%eax, %eax
	setne	%al
L593:
	.loc 6 1218 4 is_stmt 1 discriminator 4
	testb	%al, %al
	je	L594
LBB112:
	.loc 6 1219 31
	cmpl	$0, 24(%ebp)
	jne	L595
	.loc 6 1219 31 is_stmt 0 discriminator 1
	movl	20(%ebp), %eax
	movl	(%eax), %eax
	jmp	L596
L595:
	.loc 6 1219 31 discriminator 2
	movl	24(%ebp), %eax
L596:
	.loc 6 1219 11 is_stmt 1 discriminator 4
	movl	%eax, -16(%ebp)
	.loc 6 1220 26 discriminator 4
	movl	16(%ebp), %eax
	movl	(%eax), %edx
	movl	12(%ebp), %eax
	movl	(%eax), %eax
	movl	-16(%ebp), %ecx
	movl	%ecx, 12(%esp)
	movl	%edx, 8(%esp)
	movl	%eax, 4(%esp)
	movl	-12(%ebp), %eax
	movl	%eax, (%esp)
	call	__ZL19stbi__vertical_flipPviii
L594:
LBE112:
LBE111:
	.loc 6 1223 29
	movl	-12(%ebp), %eax
L597:
	.loc 6 1224 1 discriminator 1
	leave
	.cfi_restore 5
	.cfi_def_cfa 4, 4
	ret
	.cfi_endproc
LFE1809:
	.def	__ZL32stbi__load_and_postprocess_16bitP13stbi__contextPiS1_S1_i;	.scl	3;	.type	32;	.endef
__ZL32stbi__load_and_postprocess_16bitP13stbi__contextPiS1_S1_i:
LFB1810:
	.loc 6 1227 1
	.cfi_startproc
	pushl	%ebp
	.cfi_def_cfa_offset 8
	.cfi_offset 5, -8
	movl	%esp, %ebp
	.cfi_def_cfa_register 5
	subl	$72, %esp
	.loc 6 1229 34
	movl	$16, 24(%esp)
	leal	-28(%ebp), %eax
	movl	%eax, 20(%esp)
	movl	24(%ebp), %eax
	movl	%eax, 16(%esp)
	movl	20(%ebp), %eax
	movl	%eax, 12(%esp)
	movl	16(%ebp), %eax
	movl	%eax, 8(%esp)
	movl	12(%ebp), %eax
	movl	%eax, 4(%esp)
	movl	8(%ebp), %eax
	movl	%eax, (%esp)
	call	__ZL15stbi__load_mainP13stbi__contextPiS1_S1_iP17stbi__result_infoi
	movl	%eax, -12(%ebp)
	.loc 6 1231 4
	cmpl	$0, -12(%ebp)
	jne	L600
	.loc 6 1232 14
	movl	$0, %eax
	jmp	L613
L600:
	.loc 6 1235 4
	movl	-28(%ebp), %eax
	cmpl	$8, %eax
	je	L614
	.loc 6 1235 4 is_stmt 0 discriminator 2
	movl	-28(%ebp), %eax
	cmpl	$16, %eax
	je	L614
	.loc 6 1235 4 discriminator 4
	movl	$1235, 8(%esp)
	movl	$LC35, 4(%esp)
	movl	$LC36, (%esp)
	call	__assert
	jmp	L604
L614:
	.loc 6 1235 4
	nop
L604:
	.loc 6 1237 11 is_stmt 1
	movl	-28(%ebp), %eax
	.loc 6 1237 4
	cmpl	$16, %eax
	je	L605
	.loc 6 1238 37
	cmpl	$0, 24(%ebp)
	jne	L606
	.loc 6 1238 37 is_stmt 0 discriminator 1
	movl	20(%ebp), %eax
	movl	(%eax), %eax
	jmp	L607
L606:
	.loc 6 1238 37 discriminator 2
	movl	24(%ebp), %eax
L607:
	.loc 6 1238 37 discriminator 4
	movl	16(%ebp), %edx
	movl	(%edx), %ecx
	movl	12(%ebp), %edx
	movl	(%edx), %edx
	movl	%eax, 12(%esp)
	movl	%ecx, 8(%esp)
	movl	%edx, 4(%esp)
	movl	-12(%ebp), %eax
	movl	%eax, (%esp)
	call	__ZL21stbi__convert_8_to_16Phiii
	movl	%eax, -12(%ebp)
	.loc 6 1239 27 is_stmt 1 discriminator 4
	movl	$16, -28(%ebp)
L605:
LBB113:
	.loc 6 1245 8
	movl	$___emutls_v._ZL33stbi__vertically_flip_on_load_set, (%esp)
	call	___emutls_get_address
	movl	(%eax), %eax
	.loc 6 1245 37
	testl	%eax, %eax
	je	L608
	.loc 6 1245 37 is_stmt 0 discriminator 1
	movl	$___emutls_v._ZL35stbi__vertically_flip_on_load_local, (%esp)
	call	___emutls_get_address
	movl	(%eax), %eax
	testl	%eax, %eax
	setne	%al
	jmp	L609
L608:
	.loc 6 1245 37 discriminator 2
	movl	__ZL36stbi__vertically_flip_on_load_global, %eax
	testl	%eax, %eax
	setne	%al
L609:
	.loc 6 1245 4 is_stmt 1 discriminator 4
	testb	%al, %al
	je	L610
LBB114:
	.loc 6 1246 31
	cmpl	$0, 24(%ebp)
	jne	L611
	.loc 6 1246 31 is_stmt 0 discriminator 1
	movl	20(%ebp), %eax
	movl	(%eax), %eax
	jmp	L612
L611:
	.loc 6 1246 31 discriminator 2
	movl	24(%ebp), %eax
L612:
	.loc 6 1246 11 is_stmt 1 discriminator 4
	movl	%eax, -16(%ebp)
	.loc 6 1247 52 discriminator 4
	movl	-16(%ebp), %eax
	addl	%eax, %eax
	.loc 6 1247 26 discriminator 4
	movl	%eax, %ecx
	movl	16(%ebp), %eax
	movl	(%eax), %edx
	movl	12(%ebp), %eax
	movl	(%eax), %eax
	movl	%ecx, 12(%esp)
	movl	%edx, 8(%esp)
	movl	%eax, 4(%esp)
	movl	-12(%ebp), %eax
	movl	%eax, (%esp)
	call	__ZL19stbi__vertical_flipPviii
L610:
LBE114:
LBE113:
	.loc 6 1250 28
	movl	-12(%ebp), %eax
L613:
	.loc 6 1251 1 discriminator 1
	leave
	.cfi_restore 5
	.cfi_def_cfa 4, 4
	ret
	.cfi_endproc
LFE1810:
	.def	__ZL23stbi__float_postprocessPfPiS0_S0_i;	.scl	3;	.type	32;	.endef
__ZL23stbi__float_postprocessPfPiS0_S0_i:
LFB1811:
	.loc 6 1255 1
	.cfi_startproc
	pushl	%ebp
	.cfi_def_cfa_offset 8
	.cfi_offset 5, -8
	movl	%esp, %ebp
	.cfi_def_cfa_register 5
	subl	$40, %esp
LBB115:
	.loc 6 1256 8
	movl	$___emutls_v._ZL33stbi__vertically_flip_on_load_set, (%esp)
	call	___emutls_get_address
	movl	(%eax), %eax
	.loc 6 1256 51
	testl	%eax, %eax
	je	L616
	.loc 6 1256 51 is_stmt 0 discriminator 1
	movl	$___emutls_v._ZL35stbi__vertically_flip_on_load_local, (%esp)
	call	___emutls_get_address
	movl	(%eax), %eax
	testl	%eax, %eax
	setne	%al
	jmp	L617
L616:
	.loc 6 1256 51 discriminator 2
	movl	__ZL36stbi__vertically_flip_on_load_global, %eax
	testl	%eax, %eax
	setne	%al
L617:
	.loc 6 1256 4 is_stmt 1 discriminator 4
	testb	%al, %al
	je	L621
	.loc 6 1256 38 discriminator 5
	cmpl	$0, 8(%ebp)
	je	L621
LBB116:
	.loc 6 1257 31
	cmpl	$0, 24(%ebp)
	jne	L619
	.loc 6 1257 31 is_stmt 0 discriminator 1
	movl	20(%ebp), %eax
	movl	(%eax), %eax
	jmp	L620
L619:
	.loc 6 1257 31 discriminator 2
	movl	24(%ebp), %eax
L620:
	.loc 6 1257 11 is_stmt 1 discriminator 4
	movl	%eax, -12(%ebp)
	.loc 6 1258 52 discriminator 4
	movl	-12(%ebp), %eax
	sall	$2, %eax
	.loc 6 1258 26 discriminator 4
	movl	%eax, %ecx
	movl	16(%ebp), %eax
	movl	(%eax), %edx
	movl	12(%ebp), %eax
	movl	(%eax), %eax
	movl	%ecx, 12(%esp)
	movl	%edx, 8(%esp)
	movl	%eax, 4(%esp)
	movl	8(%ebp), %eax
	movl	%eax, (%esp)
	call	__ZL19stbi__vertical_flipPviii
L621:
LBE116:
LBE115:
	.loc 6 1260 1
	nop
	leave
	.cfi_restore 5
	.cfi_def_cfa 4, 4
	ret
	.cfi_endproc
LFE1811:
	.def	__ZL11stbi__fopenPKcS0_;	.scl	3;	.type	32;	.endef
__ZL11stbi__fopenPKcS0_:
LFB1812:
	.loc 6 1278 1
	.cfi_startproc
	pushl	%ebp
	.cfi_def_cfa_offset 8
	.cfi_offset 5, -8
	movl	%esp, %ebp
	.cfi_def_cfa_register 5
	subl	$40, %esp
	.loc 6 1300 13
	movl	12(%ebp), %eax
	movl	%eax, 4(%esp)
	movl	8(%ebp), %eax
	movl	%eax, (%esp)
	call	_fopen
	movl	%eax, -12(%ebp)
	.loc 6 1302 11
	movl	-12(%ebp), %eax
	.loc 6 1303 1
	leave
	.cfi_restore 5
	.cfi_def_cfa 4, 4
	ret
	.cfi_endproc
LFE1812:
	.section .rdata,"dr"
LC37:
	.ascii "rb\0"
LC38:
	.ascii "can't fopen\0"
	.text
	.globl	_stbi_load
	.def	_stbi_load;	.scl	2;	.type	32;	.endef
_stbi_load:
LFB1813:
	.loc 6 1307 1
	.cfi_startproc
	pushl	%ebp
	.cfi_def_cfa_offset 8
	.cfi_offset 5, -8
	movl	%esp, %ebp
	.cfi_def_cfa_register 5
	subl	$56, %esp
	.loc 6 1308 25
	movl	$LC37, 4(%esp)
	movl	8(%ebp), %eax
	movl	%eax, (%esp)
	call	__ZL11stbi__fopenPKcS0_
	movl	%eax, -12(%ebp)
	.loc 6 1310 4
	cmpl	$0, -12(%ebp)
	jne	L625
	.loc 6 1310 19 discriminator 1
	movl	$LC38, (%esp)
	call	__ZL9stbi__errPKc
	movl	$0, %eax
	jmp	L626
L625:
	.loc 6 1311 32
	movl	24(%ebp), %eax
	movl	%eax, 16(%esp)
	movl	20(%ebp), %eax
	movl	%eax, 12(%esp)
	movl	16(%ebp), %eax
	movl	%eax, 8(%esp)
	movl	12(%ebp), %eax
	movl	%eax, 4(%esp)
	movl	-12(%ebp), %eax
	movl	%eax, (%esp)
	call	_stbi_load_from_file
	movl	%eax, -16(%ebp)
	.loc 6 1312 10
	movl	-12(%ebp), %eax
	movl	%eax, (%esp)
	call	_fclose
	.loc 6 1313 11
	movl	-16(%ebp), %eax
L626:
	.loc 6 1314 1
	leave
	.cfi_restore 5
	.cfi_def_cfa 4, 4
	ret
	.cfi_endproc
LFE1813:
	.globl	_stbi_load_from_file
	.def	_stbi_load_from_file;	.scl	2;	.type	32;	.endef
_stbi_load_from_file:
LFB1814:
	.loc 6 1317 1
	.cfi_startproc
	pushl	%ebp
	.cfi_def_cfa_offset 8
	.cfi_offset 5, -8
	movl	%esp, %ebp
	.cfi_def_cfa_register 5
	subl	$232, %esp
	.loc 6 1320 20
	movl	8(%ebp), %eax
	movl	%eax, 4(%esp)
	leal	-200(%ebp), %eax
	movl	%eax, (%esp)
	call	__ZL16stbi__start_fileP13stbi__contextP6_iobuf
	.loc 6 1321 44
	movl	24(%ebp), %eax
	movl	%eax, 16(%esp)
	movl	20(%ebp), %eax
	movl	%eax, 12(%esp)
	movl	16(%ebp), %eax
	movl	%eax, 8(%esp)
	movl	12(%ebp), %eax
	movl	%eax, 4(%esp)
	leal	-200(%ebp), %eax
	movl	%eax, (%esp)
	call	__ZL31stbi__load_and_postprocess_8bitP13stbi__contextPiS1_S1_i
	movl	%eax, -12(%ebp)
	.loc 6 1322 4
	cmpl	$0, -12(%ebp)
	je	L628
	.loc 6 1324 46
	movl	-28(%ebp), %edx
	.loc 6 1324 27
	movl	-24(%ebp), %eax
	.loc 6 1324 16
	subl	%eax, %edx
	movl	%edx, %eax
	.loc 6 1324 12
	movl	$1, 8(%esp)
	movl	%eax, 4(%esp)
	movl	8(%ebp), %eax
	movl	%eax, (%esp)
	call	_fseek
L628:
	.loc 6 1326 11
	movl	-12(%ebp), %eax
	.loc 6 1327 1
	leave
	.cfi_restore 5
	.cfi_def_cfa 4, 4
	ret
	.cfi_endproc
LFE1814:
	.globl	_stbi_load_from_file_16
	.def	_stbi_load_from_file_16;	.scl	2;	.type	32;	.endef
_stbi_load_from_file_16:
LFB1815:
	.loc 6 1330 1
	.cfi_startproc
	pushl	%ebp
	.cfi_def_cfa_offset 8
	.cfi_offset 5, -8
	movl	%esp, %ebp
	.cfi_def_cfa_register 5
	subl	$232, %esp
	.loc 6 1333 20
	movl	8(%ebp), %eax
	movl	%eax, 4(%esp)
	leal	-200(%ebp), %eax
	movl	%eax, (%esp)
	call	__ZL16stbi__start_fileP13stbi__contextP6_iobuf
	.loc 6 1334 45
	movl	24(%ebp), %eax
	movl	%eax, 16(%esp)
	movl	20(%ebp), %eax
	movl	%eax, 12(%esp)
	movl	16(%ebp), %eax
	movl	%eax, 8(%esp)
	movl	12(%ebp), %eax
	movl	%eax, 4(%esp)
	leal	-200(%ebp), %eax
	movl	%eax, (%esp)
	call	__ZL32stbi__load_and_postprocess_16bitP13stbi__contextPiS1_S1_i
	movl	%eax, -12(%ebp)
	.loc 6 1335 4
	cmpl	$0, -12(%ebp)
	je	L631
	.loc 6 1337 46
	movl	-28(%ebp), %edx
	.loc 6 1337 27
	movl	-24(%ebp), %eax
	.loc 6 1337 16
	subl	%eax, %edx
	movl	%edx, %eax
	.loc 6 1337 12
	movl	$1, 8(%esp)
	movl	%eax, 4(%esp)
	movl	8(%ebp), %eax
	movl	%eax, (%esp)
	call	_fseek
L631:
	.loc 6 1339 11
	movl	-12(%ebp), %eax
	.loc 6 1340 1
	leave
	.cfi_restore 5
	.cfi_def_cfa 4, 4
	ret
	.cfi_endproc
LFE1815:
	.globl	_stbi_load_16
	.def	_stbi_load_16;	.scl	2;	.type	32;	.endef
_stbi_load_16:
LFB1816:
	.loc 6 1343 1
	.cfi_startproc
	pushl	%ebp
	.cfi_def_cfa_offset 8
	.cfi_offset 5, -8
	movl	%esp, %ebp
	.cfi_def_cfa_register 5
	subl	$56, %esp
	.loc 6 1344 25
	movl	$LC37, 4(%esp)
	movl	8(%ebp), %eax
	movl	%eax, (%esp)
	call	__ZL11stbi__fopenPKcS0_
	movl	%eax, -12(%ebp)
	.loc 6 1346 4
	cmpl	$0, -12(%ebp)
	jne	L634
	.loc 6 1346 31 discriminator 1
	movl	$LC38, (%esp)
	call	__ZL9stbi__errPKc
	movl	$0, %eax
	jmp	L635
L634:
	.loc 6 1347 35
	movl	24(%ebp), %eax
	movl	%eax, 16(%esp)
	movl	20(%ebp), %eax
	movl	%eax, 12(%esp)
	movl	16(%ebp), %eax
	movl	%eax, 8(%esp)
	movl	12(%ebp), %eax
	movl	%eax, 4(%esp)
	movl	-12(%ebp), %eax
	movl	%eax, (%esp)
	call	_stbi_load_from_file_16
	movl	%eax, -16(%ebp)
	.loc 6 1348 10
	movl	-12(%ebp), %eax
	movl	%eax, (%esp)
	call	_fclose
	.loc 6 1349 11
	movl	-16(%ebp), %eax
L635:
	.loc 6 1350 1
	leave
	.cfi_restore 5
	.cfi_def_cfa 4, 4
	ret
	.cfi_endproc
LFE1816:
	.globl	_stbi_load_16_from_memory
	.def	_stbi_load_16_from_memory;	.scl	2;	.type	32;	.endef
_stbi_load_16_from_memory:
LFB1817:
	.loc 6 1356 1
	.cfi_startproc
	pushl	%ebp
	.cfi_def_cfa_offset 8
	.cfi_offset 5, -8
	movl	%esp, %ebp
	.cfi_def_cfa_register 5
	subl	$232, %esp
	.loc 6 1358 19
	movl	12(%ebp), %eax
	movl	%eax, 8(%esp)
	movl	8(%ebp), %eax
	movl	%eax, 4(%esp)
	leal	-196(%ebp), %eax
	movl	%eax, (%esp)
	call	__ZL15stbi__start_memP13stbi__contextPKhi
	.loc 6 1359 43
	movl	28(%ebp), %eax
	movl	%eax, 16(%esp)
	movl	24(%ebp), %eax
	movl	%eax, 12(%esp)
	movl	20(%ebp), %eax
	movl	%eax, 8(%esp)
	movl	16(%ebp), %eax
	movl	%eax, 4(%esp)
	leal	-196(%ebp), %eax
	movl	%eax, (%esp)
	call	__ZL32stbi__load_and_postprocess_16bitP13stbi__contextPiS1_S1_i
	.loc 6 1359 84
	nop
	.loc 6 1360 1
	leave
	.cfi_restore 5
	.cfi_def_cfa 4, 4
	ret
	.cfi_endproc
LFE1817:
	.globl	_stbi_load_16_from_callbacks
	.def	_stbi_load_16_from_callbacks;	.scl	2;	.type	32;	.endef
_stbi_load_16_from_callbacks:
LFB1818:
	.loc 6 1363 1
	.cfi_startproc
	pushl	%ebp
	.cfi_def_cfa_offset 8
	.cfi_offset 5, -8
	movl	%esp, %ebp
	.cfi_def_cfa_register 5
	subl	$232, %esp
	.loc 6 1365 25
	movl	12(%ebp), %eax
	movl	%eax, 8(%esp)
	movl	8(%ebp), %eax
	movl	%eax, 4(%esp)
	leal	-196(%ebp), %eax
	movl	%eax, (%esp)
	call	__ZL21stbi__start_callbacksP13stbi__contextP17stbi_io_callbacksPv
	.loc 6 1366 43
	movl	28(%ebp), %eax
	movl	%eax, 16(%esp)
	movl	24(%ebp), %eax
	movl	%eax, 12(%esp)
	movl	20(%ebp), %eax
	movl	%eax, 8(%esp)
	movl	16(%ebp), %eax
	movl	%eax, 4(%esp)
	leal	-196(%ebp), %eax
	movl	%eax, (%esp)
	call	__ZL32stbi__load_and_postprocess_16bitP13stbi__contextPiS1_S1_i
	.loc 6 1366 84
	nop
	.loc 6 1367 1
	leave
	.cfi_restore 5
	.cfi_def_cfa 4, 4
	ret
	.cfi_endproc
LFE1818:
	.globl	_stbi_load_from_memory
	.def	_stbi_load_from_memory;	.scl	2;	.type	32;	.endef
_stbi_load_from_memory:
LFB1819:
	.loc 6 1370 1
	.cfi_startproc
	pushl	%ebp
	.cfi_def_cfa_offset 8
	.cfi_offset 5, -8
	movl	%esp, %ebp
	.cfi_def_cfa_register 5
	subl	$232, %esp
	.loc 6 1372 19
	movl	12(%ebp), %eax
	movl	%eax, 8(%esp)
	movl	8(%ebp), %eax
	movl	%eax, 4(%esp)
	leal	-196(%ebp), %eax
	movl	%eax, (%esp)
	call	__ZL15stbi__start_memP13stbi__contextPKhi
	.loc 6 1373 42
	movl	28(%ebp), %eax
	movl	%eax, 16(%esp)
	movl	24(%ebp), %eax
	movl	%eax, 12(%esp)
	movl	20(%ebp), %eax
	movl	%eax, 8(%esp)
	movl	16(%ebp), %eax
	movl	%eax, 4(%esp)
	leal	-196(%ebp), %eax
	movl	%eax, (%esp)
	call	__ZL31stbi__load_and_postprocess_8bitP13stbi__contextPiS1_S1_i
	.loc 6 1373 63
	nop
	.loc 6 1374 1
	leave
	.cfi_restore 5
	.cfi_def_cfa 4, 4
	ret
	.cfi_endproc
LFE1819:
	.globl	_stbi_load_from_callbacks
	.def	_stbi_load_from_callbacks;	.scl	2;	.type	32;	.endef
_stbi_load_from_callbacks:
LFB1820:
	.loc 6 1377 1
	.cfi_startproc
	pushl	%ebp
	.cfi_def_cfa_offset 8
	.cfi_offset 5, -8
	movl	%esp, %ebp
	.cfi_def_cfa_register 5
	subl	$232, %esp
	.loc 6 1379 25
	movl	12(%ebp), %eax
	movl	%eax, 8(%esp)
	movl	8(%ebp), %eax
	movl	%eax, 4(%esp)
	leal	-196(%ebp), %eax
	movl	%eax, (%esp)
	call	__ZL21stbi__start_callbacksP13stbi__contextP17stbi_io_callbacksPv
	.loc 6 1380 42
	movl	28(%ebp), %eax
	movl	%eax, 16(%esp)
	movl	24(%ebp), %eax
	movl	%eax, 12(%esp)
	movl	20(%ebp), %eax
	movl	%eax, 8(%esp)
	movl	16(%ebp), %eax
	movl	%eax, 4(%esp)
	leal	-196(%ebp), %eax
	movl	%eax, (%esp)
	call	__ZL31stbi__load_and_postprocess_8bitP13stbi__contextPiS1_S1_i
	.loc 6 1380 63
	nop
	.loc 6 1381 1
	leave
	.cfi_restore 5
	.cfi_def_cfa 4, 4
	ret
	.cfi_endproc
LFE1820:
	.globl	_stbi_load_gif_from_memory
	.def	_stbi_load_gif_from_memory;	.scl	2;	.type	32;	.endef
_stbi_load_gif_from_memory:
LFB1821:
	.loc 6 1385 1
	.cfi_startproc
	pushl	%ebp
	.cfi_def_cfa_offset 8
	.cfi_offset 5, -8
	movl	%esp, %ebp
	.cfi_def_cfa_register 5
	pushl	%ebx
	subl	$228, %esp
	.cfi_offset 3, -12
	.loc 6 1388 19
	movl	12(%ebp), %eax
	movl	%eax, 8(%esp)
	movl	8(%ebp), %eax
	movl	%eax, 4(%esp)
	leal	-200(%ebp), %eax
	movl	%eax, (%esp)
	call	__ZL15stbi__start_memP13stbi__contextPKhi
	.loc 6 1390 49
	movl	36(%ebp), %eax
	movl	%eax, 24(%esp)
	movl	32(%ebp), %eax
	movl	%eax, 20(%esp)
	movl	28(%ebp), %eax
	movl	%eax, 16(%esp)
	movl	24(%ebp), %eax
	movl	%eax, 12(%esp)
	movl	20(%ebp), %eax
	movl	%eax, 8(%esp)
	movl	16(%ebp), %eax
	movl	%eax, 4(%esp)
	leal	-200(%ebp), %eax
	movl	%eax, (%esp)
	call	__ZL19stbi__load_gif_mainP13stbi__contextPPiS1_S1_S1_S1_i
	movl	%eax, -12(%ebp)
	.loc 6 1391 8
	movl	$___emutls_v._ZL33stbi__vertically_flip_on_load_set, (%esp)
	call	___emutls_get_address
	movl	(%eax), %eax
	.loc 6 1391 37
	testl	%eax, %eax
	je	L645
	.loc 6 1391 37 is_stmt 0 discriminator 1
	movl	$___emutls_v._ZL35stbi__vertically_flip_on_load_local, (%esp)
	call	___emutls_get_address
	movl	(%eax), %eax
	testl	%eax, %eax
	setne	%al
	jmp	L646
L645:
	.loc 6 1391 37 discriminator 2
	movl	__ZL36stbi__vertically_flip_on_load_global, %eax
	testl	%eax, %eax
	setne	%al
L646:
	.loc 6 1391 4 is_stmt 1 discriminator 4
	testb	%al, %al
	je	L647
	.loc 6 1392 33
	movl	32(%ebp), %eax
	movl	(%eax), %ebx
	movl	28(%ebp), %eax
	movl	(%eax), %ecx
	movl	24(%ebp), %eax
	movl	(%eax), %edx
	movl	20(%ebp), %eax
	movl	(%eax), %eax
	movl	%ebx, 16(%esp)
	movl	%ecx, 12(%esp)
	movl	%edx, 8(%esp)
	movl	%eax, 4(%esp)
	movl	-12(%ebp), %eax
	movl	%eax, (%esp)
	call	__ZL26stbi__vertical_flip_slicesPviiii
L647:
	.loc 6 1395 11
	movl	-12(%ebp), %eax
	.loc 6 1396 1
	addl	$228, %esp
	popl	%ebx
	.cfi_restore 3
	popl	%ebp
	.cfi_restore 5
	.cfi_def_cfa 4, 4
	ret
	.cfi_endproc
LFE1821:
	.def	__ZL16stbi__loadf_mainP13stbi__contextPiS1_S1_i;	.scl	3;	.type	32;	.endef
__ZL16stbi__loadf_mainP13stbi__contextPiS1_S1_i:
LFB1822:
	.loc 6 1401 1
	.cfi_startproc
	pushl	%ebp
	.cfi_def_cfa_offset 8
	.cfi_offset 5, -8
	movl	%esp, %ebp
	.cfi_def_cfa_register 5
	subl	$72, %esp
LBB117:
	.loc 6 1404 22
	movl	8(%ebp), %eax
	movl	%eax, (%esp)
	call	__ZL14stbi__hdr_testP13stbi__context
	.loc 6 1404 25
	testl	%eax, %eax
	setne	%al
	.loc 6 1404 4
	testb	%al, %al
	je	L650
LBB118:
	.loc 6 1406 39
	leal	-28(%ebp), %eax
	movl	%eax, 20(%esp)
	movl	24(%ebp), %eax
	movl	%eax, 16(%esp)
	movl	20(%ebp), %eax
	movl	%eax, 12(%esp)
	movl	16(%ebp), %eax
	movl	%eax, 8(%esp)
	movl	12(%ebp), %eax
	movl	%eax, 4(%esp)
	movl	8(%ebp), %eax
	movl	%eax, (%esp)
	call	__ZL14stbi__hdr_loadP13stbi__contextPiS1_S1_iP17stbi__result_info
	movl	%eax, -12(%ebp)
	.loc 6 1407 7
	cmpl	$0, -12(%ebp)
	je	L651
	.loc 6 1408 33
	movl	24(%ebp), %eax
	movl	%eax, 16(%esp)
	movl	20(%ebp), %eax
	movl	%eax, 12(%esp)
	movl	16(%ebp), %eax
	movl	%eax, 8(%esp)
	movl	12(%ebp), %eax
	movl	%eax, 4(%esp)
	movl	-12(%ebp), %eax
	movl	%eax, (%esp)
	call	__ZL23stbi__float_postprocessPfPiS0_S0_i
L651:
	.loc 6 1409 14
	movl	-12(%ebp), %eax
	jmp	L652
L650:
LBE118:
LBE117:
	.loc 6 1412 42
	movl	24(%ebp), %eax
	movl	%eax, 16(%esp)
	movl	20(%ebp), %eax
	movl	%eax, 12(%esp)
	movl	16(%ebp), %eax
	movl	%eax, 8(%esp)
	movl	12(%ebp), %eax
	movl	%eax, 4(%esp)
	movl	8(%ebp), %eax
	movl	%eax, (%esp)
	call	__ZL31stbi__load_and_postprocess_8bitP13stbi__contextPiS1_S1_i
	movl	%eax, -16(%ebp)
	.loc 6 1413 4
	cmpl	$0, -16(%ebp)
	je	L653
	.loc 6 1414 30
	cmpl	$0, 24(%ebp)
	jne	L654
	.loc 6 1414 30 is_stmt 0 discriminator 1
	movl	20(%ebp), %eax
	movl	(%eax), %eax
	jmp	L655
L654:
	.loc 6 1414 30 discriminator 2
	movl	24(%ebp), %eax
L655:
	.loc 6 1414 30 discriminator 4
	movl	16(%ebp), %edx
	movl	(%edx), %ecx
	movl	12(%ebp), %edx
	movl	(%edx), %edx
	movl	%eax, 12(%esp)
	movl	%ecx, 8(%esp)
	movl	%edx, 4(%esp)
	movl	-16(%ebp), %eax
	movl	%eax, (%esp)
	call	__ZL16stbi__ldr_to_hdrPhiii
	.loc 6 1414 72 is_stmt 1 discriminator 4
	jmp	L652
L653:
	.loc 6 1415 11
	movl	$LC33, (%esp)
	call	__ZL9stbi__errPKc
	movl	$0, %eax
L652:
	.loc 6 1416 1 discriminator 1
	leave
	.cfi_restore 5
	.cfi_def_cfa 4, 4
	ret
	.cfi_endproc
LFE1822:
	.globl	_stbi_loadf_from_memory
	.def	_stbi_loadf_from_memory;	.scl	2;	.type	32;	.endef
_stbi_loadf_from_memory:
LFB1823:
	.loc 6 1419 1
	.cfi_startproc
	pushl	%ebp
	.cfi_def_cfa_offset 8
	.cfi_offset 5, -8
	movl	%esp, %ebp
	.cfi_def_cfa_register 5
	subl	$232, %esp
	.loc 6 1421 19
	movl	12(%ebp), %eax
	movl	%eax, 8(%esp)
	movl	8(%ebp), %eax
	movl	%eax, 4(%esp)
	leal	-196(%ebp), %eax
	movl	%eax, (%esp)
	call	__ZL15stbi__start_memP13stbi__contextPKhi
	.loc 6 1422 27
	movl	28(%ebp), %eax
	movl	%eax, 16(%esp)
	movl	24(%ebp), %eax
	movl	%eax, 12(%esp)
	movl	20(%ebp), %eax
	movl	%eax, 8(%esp)
	movl	16(%ebp), %eax
	movl	%eax, 4(%esp)
	leal	-196(%ebp), %eax
	movl	%eax, (%esp)
	call	__ZL16stbi__loadf_mainP13stbi__contextPiS1_S1_i
	.loc 6 1422 48
	nop
	.loc 6 1423 1
	leave
	.cfi_restore 5
	.cfi_def_cfa 4, 4
	ret
	.cfi_endproc
LFE1823:
	.globl	_stbi_loadf_from_callbacks
	.def	_stbi_loadf_from_callbacks;	.scl	2;	.type	32;	.endef
_stbi_loadf_from_callbacks:
LFB1824:
	.loc 6 1426 1
	.cfi_startproc
	pushl	%ebp
	.cfi_def_cfa_offset 8
	.cfi_offset 5, -8
	movl	%esp, %ebp
	.cfi_def_cfa_register 5
	subl	$232, %esp
	.loc 6 1428 25
	movl	12(%ebp), %eax
	movl	%eax, 8(%esp)
	movl	8(%ebp), %eax
	movl	%eax, 4(%esp)
	leal	-196(%ebp), %eax
	movl	%eax, (%esp)
	call	__ZL21stbi__start_callbacksP13stbi__contextP17stbi_io_callbacksPv
	.loc 6 1429 27
	movl	28(%ebp), %eax
	movl	%eax, 16(%esp)
	movl	24(%ebp), %eax
	movl	%eax, 12(%esp)
	movl	20(%ebp), %eax
	movl	%eax, 8(%esp)
	movl	16(%ebp), %eax
	movl	%eax, 4(%esp)
	leal	-196(%ebp), %eax
	movl	%eax, (%esp)
	call	__ZL16stbi__loadf_mainP13stbi__contextPiS1_S1_i
	.loc 6 1429 48
	nop
	.loc 6 1430 1
	leave
	.cfi_restore 5
	.cfi_def_cfa 4, 4
	ret
	.cfi_endproc
LFE1824:
	.globl	_stbi_loadf
	.def	_stbi_loadf;	.scl	2;	.type	32;	.endef
_stbi_loadf:
LFB1825:
	.loc 6 1434 1
	.cfi_startproc
	pushl	%ebp
	.cfi_def_cfa_offset 8
	.cfi_offset 5, -8
	movl	%esp, %ebp
	.cfi_def_cfa_register 5
	subl	$56, %esp
	.loc 6 1436 25
	movl	$LC37, 4(%esp)
	movl	8(%ebp), %eax
	movl	%eax, (%esp)
	call	__ZL11stbi__fopenPKcS0_
	movl	%eax, -12(%ebp)
	.loc 6 1437 4
	cmpl	$0, -12(%ebp)
	jne	L661
	.loc 6 1437 19 discriminator 1
	movl	$LC38, (%esp)
	call	__ZL9stbi__errPKc
	movl	$0, %eax
	jmp	L662
L661:
	.loc 6 1438 33
	movl	24(%ebp), %eax
	movl	%eax, 16(%esp)
	movl	20(%ebp), %eax
	movl	%eax, 12(%esp)
	movl	16(%ebp), %eax
	movl	%eax, 8(%esp)
	movl	12(%ebp), %eax
	movl	%eax, 4(%esp)
	movl	-12(%ebp), %eax
	movl	%eax, (%esp)
	call	_stbi_loadf_from_file
	movl	%eax, -16(%ebp)
	.loc 6 1439 10
	movl	-12(%ebp), %eax
	movl	%eax, (%esp)
	call	_fclose
	.loc 6 1440 11
	movl	-16(%ebp), %eax
L662:
	.loc 6 1441 1
	leave
	.cfi_restore 5
	.cfi_def_cfa 4, 4
	ret
	.cfi_endproc
LFE1825:
	.globl	_stbi_loadf_from_file
	.def	_stbi_loadf_from_file;	.scl	2;	.type	32;	.endef
_stbi_loadf_from_file:
LFB1826:
	.loc 6 1444 1
	.cfi_startproc
	pushl	%ebp
	.cfi_def_cfa_offset 8
	.cfi_offset 5, -8
	movl	%esp, %ebp
	.cfi_def_cfa_register 5
	subl	$232, %esp
	.loc 6 1446 20
	movl	8(%ebp), %eax
	movl	%eax, 4(%esp)
	leal	-196(%ebp), %eax
	movl	%eax, (%esp)
	call	__ZL16stbi__start_fileP13stbi__contextP6_iobuf
	.loc 6 1447 27
	movl	24(%ebp), %eax
	movl	%eax, 16(%esp)
	movl	20(%ebp), %eax
	movl	%eax, 12(%esp)
	movl	16(%ebp), %eax
	movl	%eax, 8(%esp)
	movl	12(%ebp), %eax
	movl	%eax, 4(%esp)
	leal	-196(%ebp), %eax
	movl	%eax, (%esp)
	call	__ZL16stbi__loadf_mainP13stbi__contextPiS1_S1_i
	.loc 6 1447 48
	nop
	.loc 6 1448 1
	leave
	.cfi_restore 5
	.cfi_def_cfa 4, 4
	ret
	.cfi_endproc
LFE1826:
	.globl	_stbi_is_hdr_from_memory
	.def	_stbi_is_hdr_from_memory;	.scl	2;	.type	32;	.endef
_stbi_is_hdr_from_memory:
LFB1827:
	.loc 6 1458 1
	.cfi_startproc
	pushl	%ebp
	.cfi_def_cfa_offset 8
	.cfi_offset 5, -8
	movl	%esp, %ebp
	.cfi_def_cfa_register 5
	subl	$216, %esp
	.loc 6 1461 19
	movl	12(%ebp), %eax
	movl	%eax, 8(%esp)
	movl	8(%ebp), %eax
	movl	%eax, 4(%esp)
	leal	-196(%ebp), %eax
	movl	%eax, (%esp)
	call	__ZL15stbi__start_memP13stbi__contextPKhi
	.loc 6 1462 25
	leal	-196(%ebp), %eax
	movl	%eax, (%esp)
	call	__ZL14stbi__hdr_testP13stbi__context
	.loc 6 1462 28
	nop
	.loc 6 1468 1
	leave
	.cfi_restore 5
	.cfi_def_cfa 4, 4
	ret
	.cfi_endproc
LFE1827:
	.globl	_stbi_is_hdr
	.def	_stbi_is_hdr;	.scl	2;	.type	32;	.endef
_stbi_is_hdr:
LFB1828:
	.loc 6 1472 1
	.cfi_startproc
	pushl	%ebp
	.cfi_def_cfa_offset 8
	.cfi_offset 5, -8
	movl	%esp, %ebp
	.cfi_def_cfa_register 5
	subl	$40, %esp
	.loc 6 1473 25
	movl	$LC37, 4(%esp)
	movl	8(%ebp), %eax
	movl	%eax, (%esp)
	call	__ZL11stbi__fopenPKcS0_
	movl	%eax, -16(%ebp)
	.loc 6 1474 8
	movl	$0, -12(%ebp)
	.loc 6 1475 4
	cmpl	$0, -16(%ebp)
	je	L668
	.loc 6 1476 37
	movl	-16(%ebp), %eax
	movl	%eax, (%esp)
	call	_stbi_is_hdr_from_file
	movl	%eax, -12(%ebp)
	.loc 6 1477 13
	movl	-16(%ebp), %eax
	movl	%eax, (%esp)
	call	_fclose
L668:
	.loc 6 1479 11
	movl	-12(%ebp), %eax
	.loc 6 1480 1
	leave
	.cfi_restore 5
	.cfi_def_cfa 4, 4
	ret
	.cfi_endproc
LFE1828:
	.globl	_stbi_is_hdr_from_file
	.def	_stbi_is_hdr_from_file;	.scl	2;	.type	32;	.endef
_stbi_is_hdr_from_file:
LFB1829:
	.loc 6 1483 1
	.cfi_startproc
	pushl	%ebp
	.cfi_def_cfa_offset 8
	.cfi_offset 5, -8
	movl	%esp, %ebp
	.cfi_def_cfa_register 5
	subl	$232, %esp
	.loc 6 1485 20
	movl	8(%ebp), %eax
	movl	%eax, (%esp)
	call	_ftell
	movl	%eax, -12(%ebp)
	.loc 6 1488 20
	movl	8(%ebp), %eax
	movl	%eax, 4(%esp)
	leal	-204(%ebp), %eax
	movl	%eax, (%esp)
	call	__ZL16stbi__start_fileP13stbi__contextP6_iobuf
	.loc 6 1489 24
	leal	-204(%ebp), %eax
	movl	%eax, (%esp)
	call	__ZL14stbi__hdr_testP13stbi__context
	movl	%eax, -16(%ebp)
	.loc 6 1490 9
	movl	$0, 8(%esp)
	movl	-12(%ebp), %eax
	movl	%eax, 4(%esp)
	movl	8(%ebp), %eax
	movl	%eax, (%esp)
	call	_fseek
	.loc 6 1491 11
	movl	-16(%ebp), %eax
	.loc 6 1496 1
	leave
	.cfi_restore 5
	.cfi_def_cfa 4, 4
	ret
	.cfi_endproc
LFE1829:
	.globl	_stbi_is_hdr_from_callbacks
	.def	_stbi_is_hdr_from_callbacks;	.scl	2;	.type	32;	.endef
_stbi_is_hdr_from_callbacks:
LFB1830:
	.loc 6 1500 1
	.cfi_startproc
	pushl	%ebp
	.cfi_def_cfa_offset 8
